
./ctarget:     file format elf64-x86-64


Disassembly of section .init:

0000000000401000 <_init>:
  401000:	f3 0f 1e fa          	endbr64 
  401004:	48 83 ec 08          	sub    $0x8,%rsp
  401008:	48 8b 05 d1 4f 00 00 	mov    0x4fd1(%rip),%rax        # 405fe0 <__gmon_start__@Base>
  40100f:	48 85 c0             	test   %rax,%rax
  401012:	74 02                	je     401016 <_init+0x16>
  401014:	ff d0                	callq  *%rax
  401016:	48 83 c4 08          	add    $0x8,%rsp
  40101a:	c3                   	retq   

Disassembly of section .plt:

0000000000401020 <strcasecmp@plt-0x10>:
  401020:	ff 35 ca 4f 00 00    	pushq  0x4fca(%rip)        # 405ff0 <_GLOBAL_OFFSET_TABLE_+0x8>
  401026:	ff 25 cc 4f 00 00    	jmpq   *0x4fcc(%rip)        # 405ff8 <_GLOBAL_OFFSET_TABLE_+0x10>
  40102c:	0f 1f 40 00          	nopl   0x0(%rax)

0000000000401030 <strcasecmp@plt>:
  401030:	ff 25 ca 4f 00 00    	jmpq   *0x4fca(%rip)        # 406000 <strcasecmp@GLIBC_2.2.5>
  401036:	68 00 00 00 00       	pushq  $0x0
  40103b:	e9 e0 ff ff ff       	jmpq   401020 <_init+0x20>

0000000000401040 <__errno_location@plt>:
  401040:	ff 25 c2 4f 00 00    	jmpq   *0x4fc2(%rip)        # 406008 <__errno_location@GLIBC_2.2.5>
  401046:	68 01 00 00 00       	pushq  $0x1
  40104b:	e9 d0 ff ff ff       	jmpq   401020 <_init+0x20>

0000000000401050 <srandom@plt>:
  401050:	ff 25 ba 4f 00 00    	jmpq   *0x4fba(%rip)        # 406010 <srandom@GLIBC_2.2.5>
  401056:	68 02 00 00 00       	pushq  $0x2
  40105b:	e9 c0 ff ff ff       	jmpq   401020 <_init+0x20>

0000000000401060 <strncmp@plt>:
  401060:	ff 25 b2 4f 00 00    	jmpq   *0x4fb2(%rip)        # 406018 <strncmp@GLIBC_2.2.5>
  401066:	68 03 00 00 00       	pushq  $0x3
  40106b:	e9 b0 ff ff ff       	jmpq   401020 <_init+0x20>

0000000000401070 <strcpy@plt>:
  401070:	ff 25 aa 4f 00 00    	jmpq   *0x4faa(%rip)        # 406020 <strcpy@GLIBC_2.2.5>
  401076:	68 04 00 00 00       	pushq  $0x4
  40107b:	e9 a0 ff ff ff       	jmpq   401020 <_init+0x20>

0000000000401080 <puts@plt>:
  401080:	ff 25 a2 4f 00 00    	jmpq   *0x4fa2(%rip)        # 406028 <puts@GLIBC_2.2.5>
  401086:	68 05 00 00 00       	pushq  $0x5
  40108b:	e9 90 ff ff ff       	jmpq   401020 <_init+0x20>

0000000000401090 <write@plt>:
  401090:	ff 25 9a 4f 00 00    	jmpq   *0x4f9a(%rip)        # 406030 <write@GLIBC_2.2.5>
  401096:	68 06 00 00 00       	pushq  $0x6
  40109b:	e9 80 ff ff ff       	jmpq   401020 <_init+0x20>

00000000004010a0 <strlen@plt>:
  4010a0:	ff 25 92 4f 00 00    	jmpq   *0x4f92(%rip)        # 406038 <strlen@GLIBC_2.2.5>
  4010a6:	68 07 00 00 00       	pushq  $0x7
  4010ab:	e9 70 ff ff ff       	jmpq   401020 <_init+0x20>

00000000004010b0 <mmap@plt>:
  4010b0:	ff 25 8a 4f 00 00    	jmpq   *0x4f8a(%rip)        # 406040 <mmap@GLIBC_2.2.5>
  4010b6:	68 08 00 00 00       	pushq  $0x8
  4010bb:	e9 60 ff ff ff       	jmpq   401020 <_init+0x20>

00000000004010c0 <printf@plt>:
  4010c0:	ff 25 82 4f 00 00    	jmpq   *0x4f82(%rip)        # 406048 <printf@GLIBC_2.2.5>
  4010c6:	68 09 00 00 00       	pushq  $0x9
  4010cb:	e9 50 ff ff ff       	jmpq   401020 <_init+0x20>

00000000004010d0 <memset@plt>:
  4010d0:	ff 25 7a 4f 00 00    	jmpq   *0x4f7a(%rip)        # 406050 <memset@GLIBC_2.2.5>
  4010d6:	68 0a 00 00 00       	pushq  $0xa
  4010db:	e9 40 ff ff ff       	jmpq   401020 <_init+0x20>

00000000004010e0 <alarm@plt>:
  4010e0:	ff 25 72 4f 00 00    	jmpq   *0x4f72(%rip)        # 406058 <alarm@GLIBC_2.2.5>
  4010e6:	68 0b 00 00 00       	pushq  $0xb
  4010eb:	e9 30 ff ff ff       	jmpq   401020 <_init+0x20>

00000000004010f0 <close@plt>:
  4010f0:	ff 25 6a 4f 00 00    	jmpq   *0x4f6a(%rip)        # 406060 <close@GLIBC_2.2.5>
  4010f6:	68 0c 00 00 00       	pushq  $0xc
  4010fb:	e9 20 ff ff ff       	jmpq   401020 <_init+0x20>

0000000000401100 <read@plt>:
  401100:	ff 25 62 4f 00 00    	jmpq   *0x4f62(%rip)        # 406068 <read@GLIBC_2.2.5>
  401106:	68 0d 00 00 00       	pushq  $0xd
  40110b:	e9 10 ff ff ff       	jmpq   401020 <_init+0x20>

0000000000401110 <strcmp@plt>:
  401110:	ff 25 5a 4f 00 00    	jmpq   *0x4f5a(%rip)        # 406070 <strcmp@GLIBC_2.2.5>
  401116:	68 0e 00 00 00       	pushq  $0xe
  40111b:	e9 00 ff ff ff       	jmpq   401020 <_init+0x20>

0000000000401120 <signal@plt>:
  401120:	ff 25 52 4f 00 00    	jmpq   *0x4f52(%rip)        # 406078 <signal@GLIBC_2.2.5>
  401126:	68 0f 00 00 00       	pushq  $0xf
  40112b:	e9 f0 fe ff ff       	jmpq   401020 <_init+0x20>

0000000000401130 <gethostbyname@plt>:
  401130:	ff 25 4a 4f 00 00    	jmpq   *0x4f4a(%rip)        # 406080 <gethostbyname@GLIBC_2.2.5>
  401136:	68 10 00 00 00       	pushq  $0x10
  40113b:	e9 e0 fe ff ff       	jmpq   401020 <_init+0x20>

0000000000401140 <fprintf@plt>:
  401140:	ff 25 42 4f 00 00    	jmpq   *0x4f42(%rip)        # 406088 <fprintf@GLIBC_2.2.5>
  401146:	68 11 00 00 00       	pushq  $0x11
  40114b:	e9 d0 fe ff ff       	jmpq   401020 <_init+0x20>

0000000000401150 <strtol@plt>:
  401150:	ff 25 3a 4f 00 00    	jmpq   *0x4f3a(%rip)        # 406090 <strtol@GLIBC_2.2.5>
  401156:	68 12 00 00 00       	pushq  $0x12
  40115b:	e9 c0 fe ff ff       	jmpq   401020 <_init+0x20>

0000000000401160 <memcpy@plt>:
  401160:	ff 25 32 4f 00 00    	jmpq   *0x4f32(%rip)        # 406098 <memcpy@GLIBC_2.14>
  401166:	68 13 00 00 00       	pushq  $0x13
  40116b:	e9 b0 fe ff ff       	jmpq   401020 <_init+0x20>

0000000000401170 <time@plt>:
  401170:	ff 25 2a 4f 00 00    	jmpq   *0x4f2a(%rip)        # 4060a0 <time@GLIBC_2.2.5>
  401176:	68 14 00 00 00       	pushq  $0x14
  40117b:	e9 a0 fe ff ff       	jmpq   401020 <_init+0x20>

0000000000401180 <random@plt>:
  401180:	ff 25 22 4f 00 00    	jmpq   *0x4f22(%rip)        # 4060a8 <random@GLIBC_2.2.5>
  401186:	68 15 00 00 00       	pushq  $0x15
  40118b:	e9 90 fe ff ff       	jmpq   401020 <_init+0x20>

0000000000401190 <__isoc99_sscanf@plt>:
  401190:	ff 25 1a 4f 00 00    	jmpq   *0x4f1a(%rip)        # 4060b0 <__isoc99_sscanf@GLIBC_2.7>
  401196:	68 16 00 00 00       	pushq  $0x16
  40119b:	e9 80 fe ff ff       	jmpq   401020 <_init+0x20>

00000000004011a0 <munmap@plt>:
  4011a0:	ff 25 12 4f 00 00    	jmpq   *0x4f12(%rip)        # 4060b8 <munmap@GLIBC_2.2.5>
  4011a6:	68 17 00 00 00       	pushq  $0x17
  4011ab:	e9 70 fe ff ff       	jmpq   401020 <_init+0x20>

00000000004011b0 <memmove@plt>:
  4011b0:	ff 25 0a 4f 00 00    	jmpq   *0x4f0a(%rip)        # 4060c0 <memmove@GLIBC_2.2.5>
  4011b6:	68 18 00 00 00       	pushq  $0x18
  4011bb:	e9 60 fe ff ff       	jmpq   401020 <_init+0x20>

00000000004011c0 <fopen@plt>:
  4011c0:	ff 25 02 4f 00 00    	jmpq   *0x4f02(%rip)        # 4060c8 <fopen@GLIBC_2.2.5>
  4011c6:	68 19 00 00 00       	pushq  $0x19
  4011cb:	e9 50 fe ff ff       	jmpq   401020 <_init+0x20>

00000000004011d0 <getopt@plt>:
  4011d0:	ff 25 fa 4e 00 00    	jmpq   *0x4efa(%rip)        # 4060d0 <getopt@GLIBC_2.2.5>
  4011d6:	68 1a 00 00 00       	pushq  $0x1a
  4011db:	e9 40 fe ff ff       	jmpq   401020 <_init+0x20>

00000000004011e0 <strtoul@plt>:
  4011e0:	ff 25 f2 4e 00 00    	jmpq   *0x4ef2(%rip)        # 4060d8 <strtoul@GLIBC_2.2.5>
  4011e6:	68 1b 00 00 00       	pushq  $0x1b
  4011eb:	e9 30 fe ff ff       	jmpq   401020 <_init+0x20>

00000000004011f0 <gethostname@plt>:
  4011f0:	ff 25 ea 4e 00 00    	jmpq   *0x4eea(%rip)        # 4060e0 <gethostname@GLIBC_2.2.5>
  4011f6:	68 1c 00 00 00       	pushq  $0x1c
  4011fb:	e9 20 fe ff ff       	jmpq   401020 <_init+0x20>

0000000000401200 <sprintf@plt>:
  401200:	ff 25 e2 4e 00 00    	jmpq   *0x4ee2(%rip)        # 4060e8 <sprintf@GLIBC_2.2.5>
  401206:	68 1d 00 00 00       	pushq  $0x1d
  40120b:	e9 10 fe ff ff       	jmpq   401020 <_init+0x20>

0000000000401210 <exit@plt>:
  401210:	ff 25 da 4e 00 00    	jmpq   *0x4eda(%rip)        # 4060f0 <exit@GLIBC_2.2.5>
  401216:	68 1e 00 00 00       	pushq  $0x1e
  40121b:	e9 00 fe ff ff       	jmpq   401020 <_init+0x20>

0000000000401220 <connect@plt>:
  401220:	ff 25 d2 4e 00 00    	jmpq   *0x4ed2(%rip)        # 4060f8 <connect@GLIBC_2.2.5>
  401226:	68 1f 00 00 00       	pushq  $0x1f
  40122b:	e9 f0 fd ff ff       	jmpq   401020 <_init+0x20>

0000000000401230 <getc@plt>:
  401230:	ff 25 ca 4e 00 00    	jmpq   *0x4eca(%rip)        # 406100 <getc@GLIBC_2.2.5>
  401236:	68 20 00 00 00       	pushq  $0x20
  40123b:	e9 e0 fd ff ff       	jmpq   401020 <_init+0x20>

0000000000401240 <socket@plt>:
  401240:	ff 25 c2 4e 00 00    	jmpq   *0x4ec2(%rip)        # 406108 <socket@GLIBC_2.2.5>
  401246:	68 21 00 00 00       	pushq  $0x21
  40124b:	e9 d0 fd ff ff       	jmpq   401020 <_init+0x20>

Disassembly of section .text:

0000000000401280 <_start>:
  401280:	f3 0f 1e fa          	endbr64 
  401284:	31 ed                	xor    %ebp,%ebp
  401286:	49 89 d1             	mov    %rdx,%r9
  401289:	5e                   	pop    %rsi
  40128a:	48 89 e2             	mov    %rsp,%rdx
  40128d:	48 83 e4 f0          	and    $0xfffffffffffffff0,%rsp
  401291:	50                   	push   %rax
  401292:	54                   	push   %rsp
  401293:	45 31 c0             	xor    %r8d,%r8d
  401296:	31 c9                	xor    %ecx,%ecx
  401298:	48 c7 c7 04 15 40 00 	mov    $0x401504,%rdi
  40129f:	ff 15 33 4d 00 00    	callq  *0x4d33(%rip)        # 405fd8 <__libc_start_main@GLIBC_2.34>
  4012a5:	f4                   	hlt    
  4012a6:	66 2e 0f 1f 84 00 00 	nopw   %cs:0x0(%rax,%rax,1)
  4012ad:	00 00 00 

00000000004012b0 <_dl_relocate_static_pie>:
  4012b0:	f3 0f 1e fa          	endbr64 
  4012b4:	c3                   	retq   
  4012b5:	66 2e 0f 1f 84 00 00 	nopw   %cs:0x0(%rax,%rax,1)
  4012bc:	00 00 00 
  4012bf:	90                   	nop

00000000004012c0 <deregister_tm_clones>:
  4012c0:	b8 98 64 40 00       	mov    $0x406498,%eax
  4012c5:	48 3d 98 64 40 00    	cmp    $0x406498,%rax
  4012cb:	74 13                	je     4012e0 <deregister_tm_clones+0x20>
  4012cd:	b8 00 00 00 00       	mov    $0x0,%eax
  4012d2:	48 85 c0             	test   %rax,%rax
  4012d5:	74 09                	je     4012e0 <deregister_tm_clones+0x20>
  4012d7:	bf 98 64 40 00       	mov    $0x406498,%edi
  4012dc:	ff e0                	jmpq   *%rax
  4012de:	66 90                	xchg   %ax,%ax
  4012e0:	c3                   	retq   
  4012e1:	66 66 2e 0f 1f 84 00 	data16 nopw %cs:0x0(%rax,%rax,1)
  4012e8:	00 00 00 00 
  4012ec:	0f 1f 40 00          	nopl   0x0(%rax)

00000000004012f0 <register_tm_clones>:
  4012f0:	be 98 64 40 00       	mov    $0x406498,%esi
  4012f5:	48 81 ee 98 64 40 00 	sub    $0x406498,%rsi
  4012fc:	48 89 f0             	mov    %rsi,%rax
  4012ff:	48 c1 ee 3f          	shr    $0x3f,%rsi
  401303:	48 c1 f8 03          	sar    $0x3,%rax
  401307:	48 01 c6             	add    %rax,%rsi
  40130a:	48 d1 fe             	sar    %rsi
  40130d:	74 11                	je     401320 <register_tm_clones+0x30>
  40130f:	b8 00 00 00 00       	mov    $0x0,%eax
  401314:	48 85 c0             	test   %rax,%rax
  401317:	74 07                	je     401320 <register_tm_clones+0x30>
  401319:	bf 98 64 40 00       	mov    $0x406498,%edi
  40131e:	ff e0                	jmpq   *%rax
  401320:	c3                   	retq   
  401321:	66 66 2e 0f 1f 84 00 	data16 nopw %cs:0x0(%rax,%rax,1)
  401328:	00 00 00 00 
  40132c:	0f 1f 40 00          	nopl   0x0(%rax)

0000000000401330 <__do_global_dtors_aux>:
  401330:	f3 0f 1e fa          	endbr64 
  401334:	80 3d ad 51 00 00 00 	cmpb   $0x0,0x51ad(%rip)        # 4064e8 <completed.0>
  40133b:	75 13                	jne    401350 <__do_global_dtors_aux+0x20>
  40133d:	55                   	push   %rbp
  40133e:	48 89 e5             	mov    %rsp,%rbp
  401341:	e8 7a ff ff ff       	callq  4012c0 <deregister_tm_clones>
  401346:	c6 05 9b 51 00 00 01 	movb   $0x1,0x519b(%rip)        # 4064e8 <completed.0>
  40134d:	5d                   	pop    %rbp
  40134e:	c3                   	retq   
  40134f:	90                   	nop
  401350:	c3                   	retq   
  401351:	66 66 2e 0f 1f 84 00 	data16 nopw %cs:0x0(%rax,%rax,1)
  401358:	00 00 00 00 
  40135c:	0f 1f 40 00          	nopl   0x0(%rax)

0000000000401360 <frame_dummy>:
  401360:	f3 0f 1e fa          	endbr64 
  401364:	eb 8a                	jmp    4012f0 <register_tm_clones>

0000000000401366 <usage>:
  401366:	48 83 ec 08          	sub    $0x8,%rsp
  40136a:	48 89 fe             	mov    %rdi,%rsi
  40136d:	83 3d bc 51 00 00 00 	cmpl   $0x0,0x51bc(%rip)        # 406530 <is_checker>
  401374:	74 41                	je     4013b7 <usage+0x51>
  401376:	bf 10 40 40 00       	mov    $0x404010,%edi
  40137b:	b8 00 00 00 00       	mov    $0x0,%eax
  401380:	e8 3b fd ff ff       	callq  4010c0 <printf@plt>
  401385:	bf 48 40 40 00       	mov    $0x404048,%edi
  40138a:	e8 f1 fc ff ff       	callq  401080 <puts@plt>
  40138f:	bf c5 44 40 00       	mov    $0x4044c5,%edi
  401394:	e8 e7 fc ff ff       	callq  401080 <puts@plt>
  401399:	bf 70 40 40 00       	mov    $0x404070,%edi
  40139e:	e8 dd fc ff ff       	callq  401080 <puts@plt>
  4013a3:	bf df 44 40 00       	mov    $0x4044df,%edi
  4013a8:	e8 d3 fc ff ff       	callq  401080 <puts@plt>
  4013ad:	bf 00 00 00 00       	mov    $0x0,%edi
  4013b2:	e8 59 fe ff ff       	callq  401210 <exit@plt>
  4013b7:	bf fb 44 40 00       	mov    $0x4044fb,%edi
  4013bc:	b8 00 00 00 00       	mov    $0x0,%eax
  4013c1:	e8 fa fc ff ff       	callq  4010c0 <printf@plt>
  4013c6:	bf 98 40 40 00       	mov    $0x404098,%edi
  4013cb:	e8 b0 fc ff ff       	callq  401080 <puts@plt>
  4013d0:	bf c0 40 40 00       	mov    $0x4040c0,%edi
  4013d5:	e8 a6 fc ff ff       	callq  401080 <puts@plt>
  4013da:	bf 19 45 40 00       	mov    $0x404519,%edi
  4013df:	e8 9c fc ff ff       	callq  401080 <puts@plt>
  4013e4:	eb c7                	jmp    4013ad <usage+0x47>

00000000004013e6 <initialize_target>:
  4013e6:	55                   	push   %rbp
  4013e7:	53                   	push   %rbx
  4013e8:	48 81 ec 08 21 00 00 	sub    $0x2108,%rsp
  4013ef:	89 f5                	mov    %esi,%ebp
  4013f1:	89 3d 29 51 00 00    	mov    %edi,0x5129(%rip)        # 406520 <check_level>
  4013f7:	8b 3d 4b 4d 00 00    	mov    0x4d4b(%rip),%edi        # 406148 <target_id>
  4013fd:	e8 9b 1c 00 00       	callq  40309d <gencookie>
  401402:	89 c7                	mov    %eax,%edi
  401404:	89 05 22 51 00 00    	mov    %eax,0x5122(%rip)        # 40652c <cookie>
  40140a:	e8 8e 1c 00 00       	callq  40309d <gencookie>
  40140f:	89 05 13 51 00 00    	mov    %eax,0x5113(%rip)        # 406528 <authkey>
  401415:	8b 05 2d 4d 00 00    	mov    0x4d2d(%rip),%eax        # 406148 <target_id>
  40141b:	8d 78 01             	lea    0x1(%rax),%edi
  40141e:	e8 2d fc ff ff       	callq  401050 <srandom@plt>
  401423:	e8 58 fd ff ff       	callq  401180 <random@plt>
  401428:	89 c7                	mov    %eax,%edi
  40142a:	e8 b1 02 00 00       	callq  4016e0 <scramble>
  40142f:	89 c3                	mov    %eax,%ebx
  401431:	85 ed                	test   %ebp,%ebp
  401433:	75 3d                	jne    401472 <initialize_target+0x8c>
  401435:	b8 00 00 00 00       	mov    $0x0,%eax
  40143a:	01 d8                	add    %ebx,%eax
  40143c:	0f b7 c0             	movzwl %ax,%eax
  40143f:	8d 04 c5 00 01 00 00 	lea    0x100(,%rax,8),%eax
  401446:	89 c0                	mov    %eax,%eax
  401448:	48 89 05 41 50 00 00 	mov    %rax,0x5041(%rip)        # 406490 <buf_offset>
  40144f:	c6 05 36 50 00 00 63 	movb   $0x63,0x5036(%rip)        # 40648c <target_prefix>
  401456:	83 3d 2b 50 00 00 00 	cmpl   $0x0,0x502b(%rip)        # 406488 <notify>
  40145d:	74 09                	je     401468 <initialize_target+0x82>
  40145f:	83 3d ca 50 00 00 00 	cmpl   $0x0,0x50ca(%rip)        # 406530 <is_checker>
  401466:	74 22                	je     40148a <initialize_target+0xa4>
  401468:	48 81 c4 08 21 00 00 	add    $0x2108,%rsp
  40146f:	5b                   	pop    %rbx
  401470:	5d                   	pop    %rbp
  401471:	c3                   	retq   
  401472:	bf 00 00 00 00       	mov    $0x0,%edi
  401477:	e8 f4 fc ff ff       	callq  401170 <time@plt>
  40147c:	89 c7                	mov    %eax,%edi
  40147e:	e8 cd fb ff ff       	callq  401050 <srandom@plt>
  401483:	e8 f8 fc ff ff       	callq  401180 <random@plt>
  401488:	eb b0                	jmp    40143a <initialize_target+0x54>
  40148a:	48 89 e7             	mov    %rsp,%rdi
  40148d:	be 00 01 00 00       	mov    $0x100,%esi
  401492:	e8 59 fd ff ff       	callq  4011f0 <gethostname@plt>
  401497:	89 c3                	mov    %eax,%ebx
  401499:	85 c0                	test   %eax,%eax
  40149b:	75 21                	jne    4014be <initialize_target+0xd8>
  40149d:	48 63 c3             	movslq %ebx,%rax
  4014a0:	48 8b 3c c5 60 61 40 	mov    0x406160(,%rax,8),%rdi
  4014a7:	00 
  4014a8:	48 85 ff             	test   %rdi,%rdi
  4014ab:	74 25                	je     4014d2 <initialize_target+0xec>
  4014ad:	48 89 e6             	mov    %rsp,%rsi
  4014b0:	e8 7b fb ff ff       	callq  401030 <strcasecmp@plt>
  4014b5:	85 c0                	test   %eax,%eax
  4014b7:	74 19                	je     4014d2 <initialize_target+0xec>
  4014b9:	83 c3 01             	add    $0x1,%ebx
  4014bc:	eb df                	jmp    40149d <initialize_target+0xb7>
  4014be:	bf f0 40 40 00       	mov    $0x4040f0,%edi
  4014c3:	e8 b8 fb ff ff       	callq  401080 <puts@plt>
  4014c8:	bf 08 00 00 00       	mov    $0x8,%edi
  4014cd:	e8 3e fd ff ff       	callq  401210 <exit@plt>
  4014d2:	48 8d bc 24 00 01 00 	lea    0x100(%rsp),%rdi
  4014d9:	00 
  4014da:	e8 41 19 00 00       	callq  402e20 <init_driver>
  4014df:	85 c0                	test   %eax,%eax
  4014e1:	79 85                	jns    401468 <initialize_target+0x82>
  4014e3:	48 8d b4 24 00 01 00 	lea    0x100(%rsp),%rsi
  4014ea:	00 
  4014eb:	bf 28 41 40 00       	mov    $0x404128,%edi
  4014f0:	b8 00 00 00 00       	mov    $0x0,%eax
  4014f5:	e8 c6 fb ff ff       	callq  4010c0 <printf@plt>
  4014fa:	bf 08 00 00 00       	mov    $0x8,%edi
  4014ff:	e8 0c fd ff ff       	callq  401210 <exit@plt>

0000000000401504 <main>:
  401504:	41 56                	push   %r14
  401506:	41 55                	push   %r13
  401508:	41 54                	push   %r12
  40150a:	55                   	push   %rbp
  40150b:	53                   	push   %rbx
  40150c:	89 fd                	mov    %edi,%ebp
  40150e:	48 89 f3             	mov    %rsi,%rbx
  401511:	be 02 21 40 00       	mov    $0x402102,%esi
  401516:	bf 0b 00 00 00       	mov    $0xb,%edi
  40151b:	e8 00 fc ff ff       	callq  401120 <signal@plt>
  401520:	be b4 20 40 00       	mov    $0x4020b4,%esi
  401525:	bf 07 00 00 00       	mov    $0x7,%edi
  40152a:	e8 f1 fb ff ff       	callq  401120 <signal@plt>
  40152f:	be 50 21 40 00       	mov    $0x402150,%esi
  401534:	bf 04 00 00 00       	mov    $0x4,%edi
  401539:	e8 e2 fb ff ff       	callq  401120 <signal@plt>
  40153e:	83 3d eb 4f 00 00 00 	cmpl   $0x0,0x4feb(%rip)        # 406530 <is_checker>
  401545:	75 4b                	jne    401592 <main+0x8e>
  401547:	41 bc 32 45 40 00    	mov    $0x404532,%r12d
  40154d:	48 8b 05 4c 4f 00 00 	mov    0x4f4c(%rip),%rax        # 4064a0 <stdin@@GLIBC_2.2.5>
  401554:	48 89 05 bd 4f 00 00 	mov    %rax,0x4fbd(%rip)        # 406518 <infile>
  40155b:	41 bd 00 00 00 00    	mov    $0x0,%r13d
  401561:	41 be 00 00 00 00    	mov    $0x0,%r14d
  401567:	4c 89 e2             	mov    %r12,%rdx
  40156a:	48 89 de             	mov    %rbx,%rsi
  40156d:	89 ef                	mov    %ebp,%edi
  40156f:	e8 5c fc ff ff       	callq  4011d0 <getopt@plt>
  401574:	3c ff                	cmp    $0xff,%al
  401576:	0f 84 e3 00 00 00    	je     40165f <main+0x15b>
  40157c:	8d 50 9f             	lea    -0x61(%rax),%edx
  40157f:	80 fa 10             	cmp    $0x10,%dl
  401582:	0f 87 bd 00 00 00    	ja     401645 <main+0x141>
  401588:	0f b6 d2             	movzbl %dl,%edx
  40158b:	ff 24 d5 f0 47 40 00 	jmpq   *0x4047f0(,%rdx,8)
  401592:	be 9e 21 40 00       	mov    $0x40219e,%esi
  401597:	bf 0e 00 00 00       	mov    $0xe,%edi
  40159c:	e8 7f fb ff ff       	callq  401120 <signal@plt>
  4015a1:	bf 05 00 00 00       	mov    $0x5,%edi
  4015a6:	e8 35 fb ff ff       	callq  4010e0 <alarm@plt>
  4015ab:	41 bc 37 45 40 00    	mov    $0x404537,%r12d
  4015b1:	eb 9a                	jmp    40154d <main+0x49>
  4015b3:	48 8b 3b             	mov    (%rbx),%rdi
  4015b6:	e8 ab fd ff ff       	callq  401366 <usage>
  4015bb:	be 7f 46 40 00       	mov    $0x40467f,%esi
  4015c0:	48 8b 3d f9 4e 00 00 	mov    0x4ef9(%rip),%rdi        # 4064c0 <optarg@@GLIBC_2.2.5>
  4015c7:	e8 f4 fb ff ff       	callq  4011c0 <fopen@plt>
  4015cc:	48 89 05 45 4f 00 00 	mov    %rax,0x4f45(%rip)        # 406518 <infile>
  4015d3:	48 85 c0             	test   %rax,%rax
  4015d6:	75 8f                	jne    401567 <main+0x63>
  4015d8:	48 8b 15 e1 4e 00 00 	mov    0x4ee1(%rip),%rdx        # 4064c0 <optarg@@GLIBC_2.2.5>
  4015df:	be 3f 45 40 00       	mov    $0x40453f,%esi
  4015e4:	48 8b 3d f5 4e 00 00 	mov    0x4ef5(%rip),%rdi        # 4064e0 <stderr@@GLIBC_2.2.5>
  4015eb:	e8 50 fb ff ff       	callq  401140 <fprintf@plt>
  4015f0:	b8 01 00 00 00       	mov    $0x1,%eax
  4015f5:	e9 aa 00 00 00       	jmpq   4016a4 <main+0x1a0>
  4015fa:	ba 10 00 00 00       	mov    $0x10,%edx
  4015ff:	be 00 00 00 00       	mov    $0x0,%esi
  401604:	48 8b 3d b5 4e 00 00 	mov    0x4eb5(%rip),%rdi        # 4064c0 <optarg@@GLIBC_2.2.5>
  40160b:	e8 d0 fb ff ff       	callq  4011e0 <strtoul@plt>
  401610:	41 89 c6             	mov    %eax,%r14d
  401613:	e9 4f ff ff ff       	jmpq   401567 <main+0x63>
  401618:	ba 0a 00 00 00       	mov    $0xa,%edx
  40161d:	be 00 00 00 00       	mov    $0x0,%esi
  401622:	48 8b 3d 97 4e 00 00 	mov    0x4e97(%rip),%rdi        # 4064c0 <optarg@@GLIBC_2.2.5>
  401629:	e8 22 fb ff ff       	callq  401150 <strtol@plt>
  40162e:	41 89 c5             	mov    %eax,%r13d
  401631:	e9 31 ff ff ff       	jmpq   401567 <main+0x63>
  401636:	c7 05 48 4e 00 00 00 	movl   $0x0,0x4e48(%rip)        # 406488 <notify>
  40163d:	00 00 00 
  401640:	e9 22 ff ff ff       	jmpq   401567 <main+0x63>
  401645:	0f be f0             	movsbl %al,%esi
  401648:	bf 5c 45 40 00       	mov    $0x40455c,%edi
  40164d:	b8 00 00 00 00       	mov    $0x0,%eax
  401652:	e8 69 fa ff ff       	callq  4010c0 <printf@plt>
  401657:	48 8b 3b             	mov    (%rbx),%rdi
  40165a:	e8 07 fd ff ff       	callq  401366 <usage>
  40165f:	be 00 00 00 00       	mov    $0x0,%esi
  401664:	44 89 ef             	mov    %r13d,%edi
  401667:	e8 7a fd ff ff       	callq  4013e6 <initialize_target>
  40166c:	83 3d bd 4e 00 00 00 	cmpl   $0x0,0x4ebd(%rip)        # 406530 <is_checker>
  401673:	74 09                	je     40167e <main+0x17a>
  401675:	44 39 35 ac 4e 00 00 	cmp    %r14d,0x4eac(%rip)        # 406528 <authkey>
  40167c:	75 2f                	jne    4016ad <main+0x1a9>
  40167e:	8b 35 a8 4e 00 00    	mov    0x4ea8(%rip),%esi        # 40652c <cookie>
  401684:	bf 6f 45 40 00       	mov    $0x40456f,%edi
  401689:	b8 00 00 00 00       	mov    $0x0,%eax
  40168e:	e8 2d fa ff ff       	callq  4010c0 <printf@plt>
  401693:	48 8b 3d f6 4d 00 00 	mov    0x4df6(%rip),%rdi        # 406490 <buf_offset>
  40169a:	e8 d0 0b 00 00       	callq  40226f <stable_launch>
  40169f:	b8 00 00 00 00       	mov    $0x0,%eax
  4016a4:	5b                   	pop    %rbx
  4016a5:	5d                   	pop    %rbp
  4016a6:	41 5c                	pop    %r12
  4016a8:	41 5d                	pop    %r13
  4016aa:	41 5e                	pop    %r14
  4016ac:	c3                   	retq   
  4016ad:	44 89 f6             	mov    %r14d,%esi
  4016b0:	bf 50 41 40 00       	mov    $0x404150,%edi
  4016b5:	b8 00 00 00 00       	mov    $0x0,%eax
  4016ba:	e8 01 fa ff ff       	callq  4010c0 <printf@plt>
  4016bf:	b8 00 00 00 00       	mov    $0x0,%eax
  4016c4:	e8 ef 06 00 00       	callq  401db8 <check_fail>
  4016c9:	eb b3                	jmp    40167e <main+0x17a>
  4016cb:	66 2e 0f 1f 84 00 00 	nopw   %cs:0x0(%rax,%rax,1)
  4016d2:	00 00 00 
  4016d5:	66 2e 0f 1f 84 00 00 	nopw   %cs:0x0(%rax,%rax,1)
  4016dc:	00 00 00 
  4016df:	90                   	nop

00000000004016e0 <scramble>:
  4016e0:	b8 00 00 00 00       	mov    $0x0,%eax
  4016e5:	eb 2a                	jmp    401711 <scramble+0x31>
  4016e7:	66 66 2e 0f 1f 84 00 	data16 nopw %cs:0x0(%rax,%rax,1)
  4016ee:	00 00 00 00 
  4016f2:	66 66 2e 0f 1f 84 00 	data16 nopw %cs:0x0(%rax,%rax,1)
  4016f9:	00 00 00 00 
  4016fd:	0f 1f 00             	nopl   (%rax)
  401700:	69 d0 8d c0 00 00    	imul   $0xc08d,%eax,%edx
  401706:	01 fa                	add    %edi,%edx
  401708:	89 c1                	mov    %eax,%ecx
  40170a:	89 54 8c c8          	mov    %edx,-0x38(%rsp,%rcx,4)
  40170e:	83 c0 01             	add    $0x1,%eax
  401711:	83 f8 09             	cmp    $0x9,%eax
  401714:	76 ea                	jbe    401700 <scramble+0x20>
  401716:	8b 44 24 d4          	mov    -0x2c(%rsp),%eax
  40171a:	69 c0 3c 9a 00 00    	imul   $0x9a3c,%eax,%eax
  401720:	89 44 24 d4          	mov    %eax,-0x2c(%rsp)
  401724:	8b 44 24 dc          	mov    -0x24(%rsp),%eax
  401728:	69 c0 44 d4 00 00    	imul   $0xd444,%eax,%eax
  40172e:	89 44 24 dc          	mov    %eax,-0x24(%rsp)
  401732:	8b 44 24 d0          	mov    -0x30(%rsp),%eax
  401736:	69 c0 cb cf 00 00    	imul   $0xcfcb,%eax,%eax
  40173c:	89 44 24 d0          	mov    %eax,-0x30(%rsp)
  401740:	8b 44 24 d0          	mov    -0x30(%rsp),%eax
  401744:	69 c0 be 4a 00 00    	imul   $0x4abe,%eax,%eax
  40174a:	89 44 24 d0          	mov    %eax,-0x30(%rsp)
  40174e:	8b 44 24 d0          	mov    -0x30(%rsp),%eax
  401752:	69 c0 7a c2 00 00    	imul   $0xc27a,%eax,%eax
  401758:	89 44 24 d0          	mov    %eax,-0x30(%rsp)
  40175c:	8b 44 24 cc          	mov    -0x34(%rsp),%eax
  401760:	69 c0 57 a0 00 00    	imul   $0xa057,%eax,%eax
  401766:	89 44 24 cc          	mov    %eax,-0x34(%rsp)
  40176a:	8b 44 24 ec          	mov    -0x14(%rsp),%eax
  40176e:	69 c0 8f 6e 00 00    	imul   $0x6e8f,%eax,%eax
  401774:	89 44 24 ec          	mov    %eax,-0x14(%rsp)
  401778:	8b 44 24 dc          	mov    -0x24(%rsp),%eax
  40177c:	69 c0 44 e6 00 00    	imul   $0xe644,%eax,%eax
  401782:	89 44 24 dc          	mov    %eax,-0x24(%rsp)
  401786:	8b 44 24 d8          	mov    -0x28(%rsp),%eax
  40178a:	69 c0 d9 e2 00 00    	imul   $0xe2d9,%eax,%eax
  401790:	89 44 24 d8          	mov    %eax,-0x28(%rsp)
  401794:	8b 44 24 e0          	mov    -0x20(%rsp),%eax
  401798:	69 c0 42 ba 00 00    	imul   $0xba42,%eax,%eax
  40179e:	89 44 24 e0          	mov    %eax,-0x20(%rsp)
  4017a2:	8b 44 24 d8          	mov    -0x28(%rsp),%eax
  4017a6:	69 c0 4b 62 00 00    	imul   $0x624b,%eax,%eax
  4017ac:	89 44 24 d8          	mov    %eax,-0x28(%rsp)
  4017b0:	8b 44 24 e4          	mov    -0x1c(%rsp),%eax
  4017b4:	69 c0 fc 01 00 00    	imul   $0x1fc,%eax,%eax
  4017ba:	89 44 24 e4          	mov    %eax,-0x1c(%rsp)
  4017be:	8b 44 24 cc          	mov    -0x34(%rsp),%eax
  4017c2:	69 c0 d7 33 00 00    	imul   $0x33d7,%eax,%eax
  4017c8:	89 44 24 cc          	mov    %eax,-0x34(%rsp)
  4017cc:	8b 44 24 ec          	mov    -0x14(%rsp),%eax
  4017d0:	69 c0 22 71 00 00    	imul   $0x7122,%eax,%eax
  4017d6:	89 44 24 ec          	mov    %eax,-0x14(%rsp)
  4017da:	8b 44 24 d4          	mov    -0x2c(%rsp),%eax
  4017de:	69 c0 09 d6 00 00    	imul   $0xd609,%eax,%eax
  4017e4:	89 44 24 d4          	mov    %eax,-0x2c(%rsp)
  4017e8:	8b 44 24 dc          	mov    -0x24(%rsp),%eax
  4017ec:	69 c0 7f 1a 00 00    	imul   $0x1a7f,%eax,%eax
  4017f2:	89 44 24 dc          	mov    %eax,-0x24(%rsp)
  4017f6:	8b 44 24 ec          	mov    -0x14(%rsp),%eax
  4017fa:	69 c0 9e f6 00 00    	imul   $0xf69e,%eax,%eax
  401800:	89 44 24 ec          	mov    %eax,-0x14(%rsp)
  401804:	8b 44 24 d0          	mov    -0x30(%rsp),%eax
  401808:	69 c0 42 e7 00 00    	imul   $0xe742,%eax,%eax
  40180e:	89 44 24 d0          	mov    %eax,-0x30(%rsp)
  401812:	8b 44 24 ec          	mov    -0x14(%rsp),%eax
  401816:	69 c0 73 5f 00 00    	imul   $0x5f73,%eax,%eax
  40181c:	89 44 24 ec          	mov    %eax,-0x14(%rsp)
  401820:	8b 44 24 e4          	mov    -0x1c(%rsp),%eax
  401824:	69 c0 32 f8 00 00    	imul   $0xf832,%eax,%eax
  40182a:	89 44 24 e4          	mov    %eax,-0x1c(%rsp)
  40182e:	8b 44 24 e4          	mov    -0x1c(%rsp),%eax
  401832:	69 c0 77 b5 00 00    	imul   $0xb577,%eax,%eax
  401838:	89 44 24 e4          	mov    %eax,-0x1c(%rsp)
  40183c:	8b 44 24 cc          	mov    -0x34(%rsp),%eax
  401840:	69 c0 96 9f 00 00    	imul   $0x9f96,%eax,%eax
  401846:	89 44 24 cc          	mov    %eax,-0x34(%rsp)
  40184a:	8b 44 24 e8          	mov    -0x18(%rsp),%eax
  40184e:	69 c0 4f 28 00 00    	imul   $0x284f,%eax,%eax
  401854:	89 44 24 e8          	mov    %eax,-0x18(%rsp)
  401858:	8b 44 24 c8          	mov    -0x38(%rsp),%eax
  40185c:	69 c0 02 07 00 00    	imul   $0x702,%eax,%eax
  401862:	89 44 24 c8          	mov    %eax,-0x38(%rsp)
  401866:	8b 44 24 cc          	mov    -0x34(%rsp),%eax
  40186a:	69 c0 25 79 00 00    	imul   $0x7925,%eax,%eax
  401870:	89 44 24 cc          	mov    %eax,-0x34(%rsp)
  401874:	8b 44 24 d8          	mov    -0x28(%rsp),%eax
  401878:	69 c0 9b 36 00 00    	imul   $0x369b,%eax,%eax
  40187e:	89 44 24 d8          	mov    %eax,-0x28(%rsp)
  401882:	8b 44 24 cc          	mov    -0x34(%rsp),%eax
  401886:	69 c0 df 7a 00 00    	imul   $0x7adf,%eax,%eax
  40188c:	89 44 24 cc          	mov    %eax,-0x34(%rsp)
  401890:	8b 44 24 ec          	mov    -0x14(%rsp),%eax
  401894:	69 c0 a7 c6 00 00    	imul   $0xc6a7,%eax,%eax
  40189a:	89 44 24 ec          	mov    %eax,-0x14(%rsp)
  40189e:	8b 44 24 d4          	mov    -0x2c(%rsp),%eax
  4018a2:	69 c0 f8 4c 00 00    	imul   $0x4cf8,%eax,%eax
  4018a8:	89 44 24 d4          	mov    %eax,-0x2c(%rsp)
  4018ac:	8b 44 24 cc          	mov    -0x34(%rsp),%eax
  4018b0:	69 c0 a8 08 00 00    	imul   $0x8a8,%eax,%eax
  4018b6:	89 44 24 cc          	mov    %eax,-0x34(%rsp)
  4018ba:	8b 44 24 ec          	mov    -0x14(%rsp),%eax
  4018be:	69 c0 a0 38 00 00    	imul   $0x38a0,%eax,%eax
  4018c4:	89 44 24 ec          	mov    %eax,-0x14(%rsp)
  4018c8:	8b 44 24 dc          	mov    -0x24(%rsp),%eax
  4018cc:	69 c0 47 93 00 00    	imul   $0x9347,%eax,%eax
  4018d2:	89 44 24 dc          	mov    %eax,-0x24(%rsp)
  4018d6:	8b 44 24 cc          	mov    -0x34(%rsp),%eax
  4018da:	69 c0 ea 11 00 00    	imul   $0x11ea,%eax,%eax
  4018e0:	89 44 24 cc          	mov    %eax,-0x34(%rsp)
  4018e4:	8b 44 24 d4          	mov    -0x2c(%rsp),%eax
  4018e8:	69 c0 a9 f5 00 00    	imul   $0xf5a9,%eax,%eax
  4018ee:	89 44 24 d4          	mov    %eax,-0x2c(%rsp)
  4018f2:	8b 44 24 dc          	mov    -0x24(%rsp),%eax
  4018f6:	69 c0 8a ac 00 00    	imul   $0xac8a,%eax,%eax
  4018fc:	89 44 24 dc          	mov    %eax,-0x24(%rsp)
  401900:	8b 44 24 d8          	mov    -0x28(%rsp),%eax
  401904:	69 c0 4a 93 00 00    	imul   $0x934a,%eax,%eax
  40190a:	89 44 24 d8          	mov    %eax,-0x28(%rsp)
  40190e:	8b 44 24 ec          	mov    -0x14(%rsp),%eax
  401912:	69 c0 64 86 00 00    	imul   $0x8664,%eax,%eax
  401918:	89 44 24 ec          	mov    %eax,-0x14(%rsp)
  40191c:	8b 44 24 cc          	mov    -0x34(%rsp),%eax
  401920:	69 c0 09 86 00 00    	imul   $0x8609,%eax,%eax
  401926:	89 44 24 cc          	mov    %eax,-0x34(%rsp)
  40192a:	8b 44 24 e4          	mov    -0x1c(%rsp),%eax
  40192e:	69 c0 bb b8 00 00    	imul   $0xb8bb,%eax,%eax
  401934:	89 44 24 e4          	mov    %eax,-0x1c(%rsp)
  401938:	8b 44 24 d0          	mov    -0x30(%rsp),%eax
  40193c:	69 c0 dc b9 00 00    	imul   $0xb9dc,%eax,%eax
  401942:	89 44 24 d0          	mov    %eax,-0x30(%rsp)
  401946:	8b 44 24 d4          	mov    -0x2c(%rsp),%eax
  40194a:	69 c0 50 4e 00 00    	imul   $0x4e50,%eax,%eax
  401950:	89 44 24 d4          	mov    %eax,-0x2c(%rsp)
  401954:	8b 44 24 e0          	mov    -0x20(%rsp),%eax
  401958:	69 c0 50 0d 00 00    	imul   $0xd50,%eax,%eax
  40195e:	89 44 24 e0          	mov    %eax,-0x20(%rsp)
  401962:	8b 44 24 c8          	mov    -0x38(%rsp),%eax
  401966:	69 c0 0e 29 00 00    	imul   $0x290e,%eax,%eax
  40196c:	89 44 24 c8          	mov    %eax,-0x38(%rsp)
  401970:	8b 44 24 c8          	mov    -0x38(%rsp),%eax
  401974:	69 c0 e7 77 00 00    	imul   $0x77e7,%eax,%eax
  40197a:	89 44 24 c8          	mov    %eax,-0x38(%rsp)
  40197e:	8b 44 24 e4          	mov    -0x1c(%rsp),%eax
  401982:	69 c0 c1 0b 00 00    	imul   $0xbc1,%eax,%eax
  401988:	89 44 24 e4          	mov    %eax,-0x1c(%rsp)
  40198c:	8b 44 24 d0          	mov    -0x30(%rsp),%eax
  401990:	69 c0 08 99 00 00    	imul   $0x9908,%eax,%eax
  401996:	89 44 24 d0          	mov    %eax,-0x30(%rsp)
  40199a:	8b 44 24 cc          	mov    -0x34(%rsp),%eax
  40199e:	69 c0 b7 a3 00 00    	imul   $0xa3b7,%eax,%eax
  4019a4:	89 44 24 cc          	mov    %eax,-0x34(%rsp)
  4019a8:	8b 44 24 cc          	mov    -0x34(%rsp),%eax
  4019ac:	69 c0 a1 73 00 00    	imul   $0x73a1,%eax,%eax
  4019b2:	89 44 24 cc          	mov    %eax,-0x34(%rsp)
  4019b6:	8b 44 24 e0          	mov    -0x20(%rsp),%eax
  4019ba:	69 c0 d8 a6 00 00    	imul   $0xa6d8,%eax,%eax
  4019c0:	89 44 24 e0          	mov    %eax,-0x20(%rsp)
  4019c4:	8b 44 24 e4          	mov    -0x1c(%rsp),%eax
  4019c8:	69 c0 ff 26 00 00    	imul   $0x26ff,%eax,%eax
  4019ce:	89 44 24 e4          	mov    %eax,-0x1c(%rsp)
  4019d2:	8b 44 24 e4          	mov    -0x1c(%rsp),%eax
  4019d6:	69 c0 25 57 00 00    	imul   $0x5725,%eax,%eax
  4019dc:	89 44 24 e4          	mov    %eax,-0x1c(%rsp)
  4019e0:	8b 44 24 dc          	mov    -0x24(%rsp),%eax
  4019e4:	69 c0 65 b5 00 00    	imul   $0xb565,%eax,%eax
  4019ea:	89 44 24 dc          	mov    %eax,-0x24(%rsp)
  4019ee:	8b 44 24 c8          	mov    -0x38(%rsp),%eax
  4019f2:	69 c0 2a ed 00 00    	imul   $0xed2a,%eax,%eax
  4019f8:	89 44 24 c8          	mov    %eax,-0x38(%rsp)
  4019fc:	8b 44 24 e0          	mov    -0x20(%rsp),%eax
  401a00:	69 c0 3d 8c 00 00    	imul   $0x8c3d,%eax,%eax
  401a06:	89 44 24 e0          	mov    %eax,-0x20(%rsp)
  401a0a:	8b 44 24 d4          	mov    -0x2c(%rsp),%eax
  401a0e:	69 c0 79 c8 00 00    	imul   $0xc879,%eax,%eax
  401a14:	89 44 24 d4          	mov    %eax,-0x2c(%rsp)
  401a18:	8b 44 24 e8          	mov    -0x18(%rsp),%eax
  401a1c:	69 c0 c6 d7 00 00    	imul   $0xd7c6,%eax,%eax
  401a22:	89 44 24 e8          	mov    %eax,-0x18(%rsp)
  401a26:	8b 44 24 e4          	mov    -0x1c(%rsp),%eax
  401a2a:	69 c0 90 36 00 00    	imul   $0x3690,%eax,%eax
  401a30:	89 44 24 e4          	mov    %eax,-0x1c(%rsp)
  401a34:	8b 44 24 d8          	mov    -0x28(%rsp),%eax
  401a38:	69 c0 fa df 00 00    	imul   $0xdffa,%eax,%eax
  401a3e:	89 44 24 d8          	mov    %eax,-0x28(%rsp)
  401a42:	8b 44 24 d4          	mov    -0x2c(%rsp),%eax
  401a46:	69 c0 0f b9 00 00    	imul   $0xb90f,%eax,%eax
  401a4c:	89 44 24 d4          	mov    %eax,-0x2c(%rsp)
  401a50:	8b 44 24 d8          	mov    -0x28(%rsp),%eax
  401a54:	69 c0 a4 d5 00 00    	imul   $0xd5a4,%eax,%eax
  401a5a:	89 44 24 d8          	mov    %eax,-0x28(%rsp)
  401a5e:	8b 44 24 e8          	mov    -0x18(%rsp),%eax
  401a62:	69 c0 70 d8 00 00    	imul   $0xd870,%eax,%eax
  401a68:	89 44 24 e8          	mov    %eax,-0x18(%rsp)
  401a6c:	8b 44 24 d4          	mov    -0x2c(%rsp),%eax
  401a70:	69 c0 32 09 00 00    	imul   $0x932,%eax,%eax
  401a76:	89 44 24 d4          	mov    %eax,-0x2c(%rsp)
  401a7a:	8b 44 24 dc          	mov    -0x24(%rsp),%eax
  401a7e:	69 c0 fb 9a 00 00    	imul   $0x9afb,%eax,%eax
  401a84:	89 44 24 dc          	mov    %eax,-0x24(%rsp)
  401a88:	8b 44 24 e0          	mov    -0x20(%rsp),%eax
  401a8c:	69 c0 c9 31 00 00    	imul   $0x31c9,%eax,%eax
  401a92:	89 44 24 e0          	mov    %eax,-0x20(%rsp)
  401a96:	8b 44 24 d0          	mov    -0x30(%rsp),%eax
  401a9a:	69 c0 1d e6 00 00    	imul   $0xe61d,%eax,%eax
  401aa0:	89 44 24 d0          	mov    %eax,-0x30(%rsp)
  401aa4:	8b 44 24 e0          	mov    -0x20(%rsp),%eax
  401aa8:	69 c0 37 95 00 00    	imul   $0x9537,%eax,%eax
  401aae:	89 44 24 e0          	mov    %eax,-0x20(%rsp)
  401ab2:	8b 44 24 e0          	mov    -0x20(%rsp),%eax
  401ab6:	69 c0 11 13 00 00    	imul   $0x1311,%eax,%eax
  401abc:	89 44 24 e0          	mov    %eax,-0x20(%rsp)
  401ac0:	8b 44 24 e0          	mov    -0x20(%rsp),%eax
  401ac4:	69 c0 cc 1a 00 00    	imul   $0x1acc,%eax,%eax
  401aca:	89 44 24 e0          	mov    %eax,-0x20(%rsp)
  401ace:	8b 44 24 d4          	mov    -0x2c(%rsp),%eax
  401ad2:	69 c0 0a 86 00 00    	imul   $0x860a,%eax,%eax
  401ad8:	89 44 24 d4          	mov    %eax,-0x2c(%rsp)
  401adc:	8b 44 24 dc          	mov    -0x24(%rsp),%eax
  401ae0:	69 c0 22 a6 00 00    	imul   $0xa622,%eax,%eax
  401ae6:	89 44 24 dc          	mov    %eax,-0x24(%rsp)
  401aea:	8b 44 24 d0          	mov    -0x30(%rsp),%eax
  401aee:	69 c0 22 ed 00 00    	imul   $0xed22,%eax,%eax
  401af4:	89 44 24 d0          	mov    %eax,-0x30(%rsp)
  401af8:	8b 44 24 d8          	mov    -0x28(%rsp),%eax
  401afc:	69 c0 4d 65 00 00    	imul   $0x654d,%eax,%eax
  401b02:	89 44 24 d8          	mov    %eax,-0x28(%rsp)
  401b06:	8b 44 24 ec          	mov    -0x14(%rsp),%eax
  401b0a:	69 c0 ff 62 00 00    	imul   $0x62ff,%eax,%eax
  401b10:	89 44 24 ec          	mov    %eax,-0x14(%rsp)
  401b14:	8b 44 24 e8          	mov    -0x18(%rsp),%eax
  401b18:	69 c0 50 83 00 00    	imul   $0x8350,%eax,%eax
  401b1e:	89 44 24 e8          	mov    %eax,-0x18(%rsp)
  401b22:	8b 44 24 d8          	mov    -0x28(%rsp),%eax
  401b26:	69 c0 28 9d 00 00    	imul   $0x9d28,%eax,%eax
  401b2c:	89 44 24 d8          	mov    %eax,-0x28(%rsp)
  401b30:	8b 44 24 dc          	mov    -0x24(%rsp),%eax
  401b34:	69 c0 df e0 00 00    	imul   $0xe0df,%eax,%eax
  401b3a:	89 44 24 dc          	mov    %eax,-0x24(%rsp)
  401b3e:	8b 44 24 cc          	mov    -0x34(%rsp),%eax
  401b42:	69 c0 a1 c7 00 00    	imul   $0xc7a1,%eax,%eax
  401b48:	89 44 24 cc          	mov    %eax,-0x34(%rsp)
  401b4c:	8b 44 24 e0          	mov    -0x20(%rsp),%eax
  401b50:	69 c0 c0 f1 00 00    	imul   $0xf1c0,%eax,%eax
  401b56:	89 44 24 e0          	mov    %eax,-0x20(%rsp)
  401b5a:	8b 44 24 dc          	mov    -0x24(%rsp),%eax
  401b5e:	69 c0 e5 66 00 00    	imul   $0x66e5,%eax,%eax
  401b64:	89 44 24 dc          	mov    %eax,-0x24(%rsp)
  401b68:	8b 44 24 d0          	mov    -0x30(%rsp),%eax
  401b6c:	69 c0 70 a4 00 00    	imul   $0xa470,%eax,%eax
  401b72:	89 44 24 d0          	mov    %eax,-0x30(%rsp)
  401b76:	8b 44 24 e4          	mov    -0x1c(%rsp),%eax
  401b7a:	69 c0 51 7c 00 00    	imul   $0x7c51,%eax,%eax
  401b80:	89 44 24 e4          	mov    %eax,-0x1c(%rsp)
  401b84:	8b 44 24 e4          	mov    -0x1c(%rsp),%eax
  401b88:	69 c0 45 8a 00 00    	imul   $0x8a45,%eax,%eax
  401b8e:	89 44 24 e4          	mov    %eax,-0x1c(%rsp)
  401b92:	b8 00 00 00 00       	mov    $0x0,%eax
  401b97:	ba 00 00 00 00       	mov    $0x0,%edx
  401b9c:	eb 0d                	jmp    401bab <scramble+0x4cb>
  401b9e:	66 90                	xchg   %ax,%ax
  401ba0:	89 c1                	mov    %eax,%ecx
  401ba2:	8b 4c 8c c8          	mov    -0x38(%rsp,%rcx,4),%ecx
  401ba6:	01 ca                	add    %ecx,%edx
  401ba8:	83 c0 01             	add    $0x1,%eax
  401bab:	83 f8 09             	cmp    $0x9,%eax
  401bae:	76 f0                	jbe    401ba0 <scramble+0x4c0>
  401bb0:	89 d0                	mov    %edx,%eax
  401bb2:	c3                   	retq   

0000000000401bb3 <getbuf>:
  401bb3:	48 83 ec 28          	sub    $0x28,%rsp
  401bb7:	48 89 e7             	mov    %rsp,%rdi
  401bba:	e8 28 02 00 00       	callq  401de7 <Gets>
  401bbf:	b8 01 00 00 00       	mov    $0x1,%eax
  401bc4:	48 83 c4 28          	add    $0x28,%rsp
  401bc8:	c3                   	retq   

0000000000401bc9 <touch1>:
  401bc9:	48 83 ec 08          	sub    $0x8,%rsp
  401bcd:	c7 05 4d 49 00 00 01 	movl   $0x1,0x494d(%rip)        # 406524 <vlevel>
  401bd4:	00 00 00 
  401bd7:	bf 9b 45 40 00       	mov    $0x40459b,%edi
  401bdc:	e8 9f f4 ff ff       	callq  401080 <puts@plt>
  401be1:	bf 01 00 00 00       	mov    $0x1,%edi
  401be6:	e8 ef 03 00 00       	callq  401fda <validate>
  401beb:	bf 00 00 00 00       	mov    $0x0,%edi
  401bf0:	e8 1b f6 ff ff       	callq  401210 <exit@plt>

0000000000401bf5 <touch2>:
  401bf5:	48 83 ec 08          	sub    $0x8,%rsp
  401bf9:	89 fe                	mov    %edi,%esi
  401bfb:	c7 05 1f 49 00 00 02 	movl   $0x2,0x491f(%rip)        # 406524 <vlevel>
  401c02:	00 00 00 
  401c05:	39 3d 21 49 00 00    	cmp    %edi,0x4921(%rip)        # 40652c <cookie>
  401c0b:	74 23                	je     401c30 <touch2+0x3b>
  401c0d:	bf a8 41 40 00       	mov    $0x4041a8,%edi
  401c12:	b8 00 00 00 00       	mov    $0x0,%eax
  401c17:	e8 a4 f4 ff ff       	callq  4010c0 <printf@plt>
  401c1c:	bf 02 00 00 00       	mov    $0x2,%edi
  401c21:	e8 66 04 00 00       	callq  40208c <fail>
  401c26:	bf 00 00 00 00       	mov    $0x0,%edi
  401c2b:	e8 e0 f5 ff ff       	callq  401210 <exit@plt>
  401c30:	bf 80 41 40 00       	mov    $0x404180,%edi
  401c35:	b8 00 00 00 00       	mov    $0x0,%eax
  401c3a:	e8 81 f4 ff ff       	callq  4010c0 <printf@plt>
  401c3f:	bf 02 00 00 00       	mov    $0x2,%edi
  401c44:	e8 91 03 00 00       	callq  401fda <validate>
  401c49:	eb db                	jmp    401c26 <touch2+0x31>

0000000000401c4b <hexmatch>:
  401c4b:	41 54                	push   %r12
  401c4d:	55                   	push   %rbp
  401c4e:	53                   	push   %rbx
  401c4f:	48 83 ec 70          	sub    $0x70,%rsp
  401c53:	89 fd                	mov    %edi,%ebp
  401c55:	48 89 f3             	mov    %rsi,%rbx
  401c58:	e8 23 f5 ff ff       	callq  401180 <random@plt>
  401c5d:	48 89 c1             	mov    %rax,%rcx
  401c60:	48 ba 0b d7 a3 70 3d 	movabs $0xa3d70a3d70a3d70b,%rdx
  401c67:	0a d7 a3 
  401c6a:	48 f7 ea             	imul   %rdx
  401c6d:	48 01 ca             	add    %rcx,%rdx
  401c70:	48 c1 fa 06          	sar    $0x6,%rdx
  401c74:	48 89 c8             	mov    %rcx,%rax
  401c77:	48 c1 f8 3f          	sar    $0x3f,%rax
  401c7b:	48 29 c2             	sub    %rax,%rdx
  401c7e:	48 8d 04 92          	lea    (%rdx,%rdx,4),%rax
  401c82:	48 8d 04 80          	lea    (%rax,%rax,4),%rax
  401c86:	48 c1 e0 02          	shl    $0x2,%rax
  401c8a:	48 29 c1             	sub    %rax,%rcx
  401c8d:	4c 8d 24 0c          	lea    (%rsp,%rcx,1),%r12
  401c91:	89 ea                	mov    %ebp,%edx
  401c93:	be b8 45 40 00       	mov    $0x4045b8,%esi
  401c98:	4c 89 e7             	mov    %r12,%rdi
  401c9b:	b8 00 00 00 00       	mov    $0x0,%eax
  401ca0:	e8 5b f5 ff ff       	callq  401200 <sprintf@plt>
  401ca5:	ba 09 00 00 00       	mov    $0x9,%edx
  401caa:	4c 89 e6             	mov    %r12,%rsi
  401cad:	48 89 df             	mov    %rbx,%rdi
  401cb0:	e8 ab f3 ff ff       	callq  401060 <strncmp@plt>
  401cb5:	85 c0                	test   %eax,%eax
  401cb7:	0f 94 c0             	sete   %al
  401cba:	0f b6 c0             	movzbl %al,%eax
  401cbd:	48 83 c4 70          	add    $0x70,%rsp
  401cc1:	5b                   	pop    %rbx
  401cc2:	5d                   	pop    %rbp
  401cc3:	41 5c                	pop    %r12
  401cc5:	c3                   	retq   

0000000000401cc6 <touch3>:
  401cc6:	53                   	push   %rbx
  401cc7:	48 89 fb             	mov    %rdi,%rbx
  401cca:	c7 05 50 48 00 00 03 	movl   $0x3,0x4850(%rip)        # 406524 <vlevel>
  401cd1:	00 00 00 
  401cd4:	48 89 fe             	mov    %rdi,%rsi
  401cd7:	8b 3d 4f 48 00 00    	mov    0x484f(%rip),%edi        # 40652c <cookie>
  401cdd:	e8 69 ff ff ff       	callq  401c4b <hexmatch>
  401ce2:	85 c0                	test   %eax,%eax
  401ce4:	74 26                	je     401d0c <touch3+0x46>
  401ce6:	48 89 de             	mov    %rbx,%rsi
  401ce9:	bf d0 41 40 00       	mov    $0x4041d0,%edi
  401cee:	b8 00 00 00 00       	mov    $0x0,%eax
  401cf3:	e8 c8 f3 ff ff       	callq  4010c0 <printf@plt>
  401cf8:	bf 03 00 00 00       	mov    $0x3,%edi
  401cfd:	e8 d8 02 00 00       	callq  401fda <validate>
  401d02:	bf 00 00 00 00       	mov    $0x0,%edi
  401d07:	e8 04 f5 ff ff       	callq  401210 <exit@plt>
  401d0c:	48 89 de             	mov    %rbx,%rsi
  401d0f:	bf f8 41 40 00       	mov    $0x4041f8,%edi
  401d14:	b8 00 00 00 00       	mov    $0x0,%eax
  401d19:	e8 a2 f3 ff ff       	callq  4010c0 <printf@plt>
  401d1e:	bf 03 00 00 00       	mov    $0x3,%edi
  401d23:	e8 64 03 00 00       	callq  40208c <fail>
  401d28:	eb d8                	jmp    401d02 <touch3+0x3c>

0000000000401d2a <test>:
  401d2a:	48 83 ec 08          	sub    $0x8,%rsp
  401d2e:	b8 00 00 00 00       	mov    $0x0,%eax
  401d33:	e8 7b fe ff ff       	callq  401bb3 <getbuf>
  401d38:	89 c6                	mov    %eax,%esi
  401d3a:	bf 20 42 40 00       	mov    $0x404220,%edi
  401d3f:	b8 00 00 00 00       	mov    $0x0,%eax
  401d44:	e8 77 f3 ff ff       	callq  4010c0 <printf@plt>
  401d49:	48 83 c4 08          	add    $0x8,%rsp
  401d4d:	c3                   	retq   

0000000000401d4e <save_char>:
  401d4e:	8b 05 f0 53 00 00    	mov    0x53f0(%rip),%eax        # 407144 <gets_cnt>
  401d54:	3d ff 03 00 00       	cmp    $0x3ff,%eax
  401d59:	7f 49                	jg     401da4 <save_char+0x56>
  401d5b:	89 f9                	mov    %edi,%ecx
  401d5d:	c0 e9 04             	shr    $0x4,%cl
  401d60:	8d 14 40             	lea    (%rax,%rax,2),%edx
  401d63:	83 e1 0f             	and    $0xf,%ecx
  401d66:	0f b6 b1 80 48 40 00 	movzbl 0x404880(%rcx),%esi
  401d6d:	48 63 ca             	movslq %edx,%rcx
  401d70:	40 88 b1 40 65 40 00 	mov    %sil,0x406540(%rcx)
  401d77:	8d 4a 01             	lea    0x1(%rdx),%ecx
  401d7a:	83 e7 0f             	and    $0xf,%edi
  401d7d:	0f b6 b7 80 48 40 00 	movzbl 0x404880(%rdi),%esi
  401d84:	48 63 c9             	movslq %ecx,%rcx
  401d87:	40 88 b1 40 65 40 00 	mov    %sil,0x406540(%rcx)
  401d8e:	83 c2 02             	add    $0x2,%edx
  401d91:	48 63 d2             	movslq %edx,%rdx
  401d94:	c6 82 40 65 40 00 20 	movb   $0x20,0x406540(%rdx)
  401d9b:	83 c0 01             	add    $0x1,%eax
  401d9e:	89 05 a0 53 00 00    	mov    %eax,0x53a0(%rip)        # 407144 <gets_cnt>
  401da4:	c3                   	retq   

0000000000401da5 <save_term>:
  401da5:	8b 05 99 53 00 00    	mov    0x5399(%rip),%eax        # 407144 <gets_cnt>
  401dab:	8d 04 40             	lea    (%rax,%rax,2),%eax
  401dae:	48 98                	cltq   
  401db0:	c6 80 40 65 40 00 00 	movb   $0x0,0x406540(%rax)
  401db7:	c3                   	retq   

0000000000401db8 <check_fail>:
  401db8:	48 83 ec 08          	sub    $0x8,%rsp
  401dbc:	0f be 35 c9 46 00 00 	movsbl 0x46c9(%rip),%esi        # 40648c <target_prefix>
  401dc3:	b9 40 65 40 00       	mov    $0x406540,%ecx
  401dc8:	8b 15 52 47 00 00    	mov    0x4752(%rip),%edx        # 406520 <check_level>
  401dce:	bf bd 45 40 00       	mov    $0x4045bd,%edi
  401dd3:	b8 00 00 00 00       	mov    $0x0,%eax
  401dd8:	e8 e3 f2 ff ff       	callq  4010c0 <printf@plt>
  401ddd:	bf 01 00 00 00       	mov    $0x1,%edi
  401de2:	e8 29 f4 ff ff       	callq  401210 <exit@plt>

0000000000401de7 <Gets>:
  401de7:	41 54                	push   %r12
  401de9:	55                   	push   %rbp
  401dea:	53                   	push   %rbx
  401deb:	49 89 fc             	mov    %rdi,%r12
  401dee:	c7 05 4c 53 00 00 00 	movl   $0x0,0x534c(%rip)        # 407144 <gets_cnt>
  401df5:	00 00 00 
  401df8:	48 89 fb             	mov    %rdi,%rbx
  401dfb:	eb 11                	jmp    401e0e <Gets+0x27>
  401dfd:	48 8d 6b 01          	lea    0x1(%rbx),%rbp
  401e01:	88 03                	mov    %al,(%rbx)
  401e03:	0f b6 f8             	movzbl %al,%edi
  401e06:	e8 43 ff ff ff       	callq  401d4e <save_char>
  401e0b:	48 89 eb             	mov    %rbp,%rbx
  401e0e:	48 8b 3d 03 47 00 00 	mov    0x4703(%rip),%rdi        # 406518 <infile>
  401e15:	e8 16 f4 ff ff       	callq  401230 <getc@plt>
  401e1a:	83 f8 ff             	cmp    $0xffffffff,%eax
  401e1d:	74 05                	je     401e24 <Gets+0x3d>
  401e1f:	83 f8 0a             	cmp    $0xa,%eax
  401e22:	75 d9                	jne    401dfd <Gets+0x16>
  401e24:	c6 03 00             	movb   $0x0,(%rbx)
  401e27:	b8 00 00 00 00       	mov    $0x0,%eax
  401e2c:	e8 74 ff ff ff       	callq  401da5 <save_term>
  401e31:	4c 89 e0             	mov    %r12,%rax
  401e34:	5b                   	pop    %rbx
  401e35:	5d                   	pop    %rbp
  401e36:	41 5c                	pop    %r12
  401e38:	c3                   	retq   

0000000000401e39 <notify_server>:
  401e39:	83 3d f0 46 00 00 00 	cmpl   $0x0,0x46f0(%rip)        # 406530 <is_checker>
  401e40:	0f 85 93 01 00 00    	jne    401fd9 <notify_server+0x1a0>
  401e46:	55                   	push   %rbp
  401e47:	53                   	push   %rbx
  401e48:	48 81 ec 08 40 00 00 	sub    $0x4008,%rsp
  401e4f:	89 fb                	mov    %edi,%ebx
  401e51:	81 3d e9 52 00 00 9c 	cmpl   $0x1f9c,0x52e9(%rip)        # 407144 <gets_cnt>
  401e58:	1f 00 00 
  401e5b:	0f 8f ad 00 00 00    	jg     401f0e <notify_server+0xd5>
  401e61:	44 0f be 0d 23 46 00 	movsbl 0x4623(%rip),%r9d        # 40648c <target_prefix>
  401e68:	00 
  401e69:	83 3d 18 46 00 00 00 	cmpl   $0x0,0x4618(%rip)        # 406488 <notify>
  401e70:	0f 84 b1 00 00 00    	je     401f27 <notify_server+0xee>
  401e76:	44 8b 05 ab 46 00 00 	mov    0x46ab(%rip),%r8d        # 406528 <authkey>
  401e7d:	85 db                	test   %ebx,%ebx
  401e7f:	0f 84 ad 00 00 00    	je     401f32 <notify_server+0xf9>
  401e85:	bd d3 45 40 00       	mov    $0x4045d3,%ebp
  401e8a:	48 8d bc 24 00 20 00 	lea    0x2000(%rsp),%rdi
  401e91:	00 
  401e92:	68 40 65 40 00       	pushq  $0x406540
  401e97:	56                   	push   %rsi
  401e98:	48 89 e9             	mov    %rbp,%rcx
  401e9b:	8b 15 a7 42 00 00    	mov    0x42a7(%rip),%edx        # 406148 <target_id>
  401ea1:	be dd 45 40 00       	mov    $0x4045dd,%esi
  401ea6:	b8 00 00 00 00       	mov    $0x0,%eax
  401eab:	e8 50 f3 ff ff       	callq  401200 <sprintf@plt>
  401eb0:	48 83 c4 10          	add    $0x10,%rsp
  401eb4:	83 3d cd 45 00 00 00 	cmpl   $0x0,0x45cd(%rip)        # 406488 <notify>
  401ebb:	0f 84 ab 00 00 00    	je     401f6c <notify_server+0x133>
  401ec1:	85 db                	test   %ebx,%ebx
  401ec3:	0f 84 8f 00 00 00    	je     401f58 <notify_server+0x11f>
  401ec9:	48 8d 8c 24 00 20 00 	lea    0x2000(%rsp),%rcx
  401ed0:	00 
  401ed1:	49 89 e1             	mov    %rsp,%r9
  401ed4:	41 b8 00 00 00 00    	mov    $0x0,%r8d
  401eda:	48 8b 15 6f 42 00 00 	mov    0x426f(%rip),%rdx        # 406150 <lab>
  401ee1:	48 8b 35 98 45 00 00 	mov    0x4598(%rip),%rsi        # 406480 <course>
  401ee8:	48 8b 3d 51 42 00 00 	mov    0x4251(%rip),%rdi        # 406140 <user_id>
  401eef:	e8 0f 11 00 00       	callq  403003 <driver_post>
  401ef4:	85 c0                	test   %eax,%eax
  401ef6:	78 44                	js     401f3c <notify_server+0x103>
  401ef8:	bf 78 42 40 00       	mov    $0x404278,%edi
  401efd:	e8 7e f1 ff ff       	callq  401080 <puts@plt>
  401f02:	bf 05 46 40 00       	mov    $0x404605,%edi
  401f07:	e8 74 f1 ff ff       	callq  401080 <puts@plt>
  401f0c:	eb 54                	jmp    401f62 <notify_server+0x129>
  401f0e:	bf 48 42 40 00       	mov    $0x404248,%edi
  401f13:	b8 00 00 00 00       	mov    $0x0,%eax
  401f18:	e8 a3 f1 ff ff       	callq  4010c0 <printf@plt>
  401f1d:	bf 01 00 00 00       	mov    $0x1,%edi
  401f22:	e8 e9 f2 ff ff       	callq  401210 <exit@plt>
  401f27:	41 b8 ff ff ff ff    	mov    $0xffffffff,%r8d
  401f2d:	e9 4b ff ff ff       	jmpq   401e7d <notify_server+0x44>
  401f32:	bd d8 45 40 00       	mov    $0x4045d8,%ebp
  401f37:	e9 4e ff ff ff       	jmpq   401e8a <notify_server+0x51>
  401f3c:	48 89 e6             	mov    %rsp,%rsi
  401f3f:	bf f9 45 40 00       	mov    $0x4045f9,%edi
  401f44:	b8 00 00 00 00       	mov    $0x0,%eax
  401f49:	e8 72 f1 ff ff       	callq  4010c0 <printf@plt>
  401f4e:	bf 01 00 00 00       	mov    $0x1,%edi
  401f53:	e8 b8 f2 ff ff       	callq  401210 <exit@plt>
  401f58:	bf 0f 46 40 00       	mov    $0x40460f,%edi
  401f5d:	e8 1e f1 ff ff       	callq  401080 <puts@plt>
  401f62:	48 81 c4 08 40 00 00 	add    $0x4008,%rsp
  401f69:	5b                   	pop    %rbx
  401f6a:	5d                   	pop    %rbp
  401f6b:	c3                   	retq   
  401f6c:	48 89 ee             	mov    %rbp,%rsi
  401f6f:	bf b0 42 40 00       	mov    $0x4042b0,%edi
  401f74:	b8 00 00 00 00       	mov    $0x0,%eax
  401f79:	e8 42 f1 ff ff       	callq  4010c0 <printf@plt>
  401f7e:	48 8b 35 bb 41 00 00 	mov    0x41bb(%rip),%rsi        # 406140 <user_id>
  401f85:	bf 16 46 40 00       	mov    $0x404616,%edi
  401f8a:	b8 00 00 00 00       	mov    $0x0,%eax
  401f8f:	e8 2c f1 ff ff       	callq  4010c0 <printf@plt>
  401f94:	48 8b 35 e5 44 00 00 	mov    0x44e5(%rip),%rsi        # 406480 <course>
  401f9b:	bf 23 46 40 00       	mov    $0x404623,%edi
  401fa0:	b8 00 00 00 00       	mov    $0x0,%eax
  401fa5:	e8 16 f1 ff ff       	callq  4010c0 <printf@plt>
  401faa:	48 8b 35 9f 41 00 00 	mov    0x419f(%rip),%rsi        # 406150 <lab>
  401fb1:	bf 2f 46 40 00       	mov    $0x40462f,%edi
  401fb6:	b8 00 00 00 00       	mov    $0x0,%eax
  401fbb:	e8 00 f1 ff ff       	callq  4010c0 <printf@plt>
  401fc0:	48 8d b4 24 00 20 00 	lea    0x2000(%rsp),%rsi
  401fc7:	00 
  401fc8:	bf 38 46 40 00       	mov    $0x404638,%edi
  401fcd:	b8 00 00 00 00       	mov    $0x0,%eax
  401fd2:	e8 e9 f0 ff ff       	callq  4010c0 <printf@plt>
  401fd7:	eb 89                	jmp    401f62 <notify_server+0x129>
  401fd9:	c3                   	retq   

0000000000401fda <validate>:
  401fda:	53                   	push   %rbx
  401fdb:	89 fb                	mov    %edi,%ebx
  401fdd:	83 3d 4c 45 00 00 00 	cmpl   $0x0,0x454c(%rip)        # 406530 <is_checker>
  401fe4:	74 60                	je     402046 <validate+0x6c>
  401fe6:	39 3d 38 45 00 00    	cmp    %edi,0x4538(%rip)        # 406524 <vlevel>
  401fec:	75 29                	jne    402017 <validate+0x3d>
  401fee:	8b 35 2c 45 00 00    	mov    0x452c(%rip),%esi        # 406520 <check_level>
  401ff4:	39 fe                	cmp    %edi,%esi
  401ff6:	75 33                	jne    40202b <validate+0x51>
  401ff8:	0f be 35 8d 44 00 00 	movsbl 0x448d(%rip),%esi        # 40648c <target_prefix>
  401fff:	b9 40 65 40 00       	mov    $0x406540,%ecx
  402004:	89 fa                	mov    %edi,%edx
  402006:	bf 62 46 40 00       	mov    $0x404662,%edi
  40200b:	b8 00 00 00 00       	mov    $0x0,%eax
  402010:	e8 ab f0 ff ff       	callq  4010c0 <printf@plt>
  402015:	5b                   	pop    %rbx
  402016:	c3                   	retq   
  402017:	bf 44 46 40 00       	mov    $0x404644,%edi
  40201c:	e8 5f f0 ff ff       	callq  401080 <puts@plt>
  402021:	b8 00 00 00 00       	mov    $0x0,%eax
  402026:	e8 8d fd ff ff       	callq  401db8 <check_fail>
  40202b:	89 fa                	mov    %edi,%edx
  40202d:	bf d8 42 40 00       	mov    $0x4042d8,%edi
  402032:	b8 00 00 00 00       	mov    $0x0,%eax
  402037:	e8 84 f0 ff ff       	callq  4010c0 <printf@plt>
  40203c:	b8 00 00 00 00       	mov    $0x0,%eax
  402041:	e8 72 fd ff ff       	callq  401db8 <check_fail>
  402046:	39 3d d8 44 00 00    	cmp    %edi,0x44d8(%rip)        # 406524 <vlevel>
  40204c:	74 18                	je     402066 <validate+0x8c>
  40204e:	bf 44 46 40 00       	mov    $0x404644,%edi
  402053:	e8 28 f0 ff ff       	callq  401080 <puts@plt>
  402058:	89 de                	mov    %ebx,%esi
  40205a:	bf 00 00 00 00       	mov    $0x0,%edi
  40205f:	e8 d5 fd ff ff       	callq  401e39 <notify_server>
  402064:	eb af                	jmp    402015 <validate+0x3b>
  402066:	0f be 15 1f 44 00 00 	movsbl 0x441f(%rip),%edx        # 40648c <target_prefix>
  40206d:	89 fe                	mov    %edi,%esi
  40206f:	bf 00 43 40 00       	mov    $0x404300,%edi
  402074:	b8 00 00 00 00       	mov    $0x0,%eax
  402079:	e8 42 f0 ff ff       	callq  4010c0 <printf@plt>
  40207e:	89 de                	mov    %ebx,%esi
  402080:	bf 01 00 00 00       	mov    $0x1,%edi
  402085:	e8 af fd ff ff       	callq  401e39 <notify_server>
  40208a:	eb 89                	jmp    402015 <validate+0x3b>

000000000040208c <fail>:
  40208c:	48 83 ec 08          	sub    $0x8,%rsp
  402090:	83 3d 99 44 00 00 00 	cmpl   $0x0,0x4499(%rip)        # 406530 <is_checker>
  402097:	75 11                	jne    4020aa <fail+0x1e>
  402099:	89 fe                	mov    %edi,%esi
  40209b:	bf 00 00 00 00       	mov    $0x0,%edi
  4020a0:	e8 94 fd ff ff       	callq  401e39 <notify_server>
  4020a5:	48 83 c4 08          	add    $0x8,%rsp
  4020a9:	c3                   	retq   
  4020aa:	b8 00 00 00 00       	mov    $0x0,%eax
  4020af:	e8 04 fd ff ff       	callq  401db8 <check_fail>

00000000004020b4 <bushandler>:
  4020b4:	48 83 ec 08          	sub    $0x8,%rsp
  4020b8:	83 3d 71 44 00 00 00 	cmpl   $0x0,0x4471(%rip)        # 406530 <is_checker>
  4020bf:	74 14                	je     4020d5 <bushandler+0x21>
  4020c1:	bf 77 46 40 00       	mov    $0x404677,%edi
  4020c6:	e8 b5 ef ff ff       	callq  401080 <puts@plt>
  4020cb:	b8 00 00 00 00       	mov    $0x0,%eax
  4020d0:	e8 e3 fc ff ff       	callq  401db8 <check_fail>
  4020d5:	bf 38 43 40 00       	mov    $0x404338,%edi
  4020da:	e8 a1 ef ff ff       	callq  401080 <puts@plt>
  4020df:	bf 81 46 40 00       	mov    $0x404681,%edi
  4020e4:	e8 97 ef ff ff       	callq  401080 <puts@plt>
  4020e9:	be 00 00 00 00       	mov    $0x0,%esi
  4020ee:	bf 00 00 00 00       	mov    $0x0,%edi
  4020f3:	e8 41 fd ff ff       	callq  401e39 <notify_server>
  4020f8:	bf 01 00 00 00       	mov    $0x1,%edi
  4020fd:	e8 0e f1 ff ff       	callq  401210 <exit@plt>

0000000000402102 <seghandler>:
  402102:	48 83 ec 08          	sub    $0x8,%rsp
  402106:	83 3d 23 44 00 00 00 	cmpl   $0x0,0x4423(%rip)        # 406530 <is_checker>
  40210d:	74 14                	je     402123 <seghandler+0x21>
  40210f:	bf 97 46 40 00       	mov    $0x404697,%edi
  402114:	e8 67 ef ff ff       	callq  401080 <puts@plt>
  402119:	b8 00 00 00 00       	mov    $0x0,%eax
  40211e:	e8 95 fc ff ff       	callq  401db8 <check_fail>
  402123:	bf 58 43 40 00       	mov    $0x404358,%edi
  402128:	e8 53 ef ff ff       	callq  401080 <puts@plt>
  40212d:	bf 81 46 40 00       	mov    $0x404681,%edi
  402132:	e8 49 ef ff ff       	callq  401080 <puts@plt>
  402137:	be 00 00 00 00       	mov    $0x0,%esi
  40213c:	bf 00 00 00 00       	mov    $0x0,%edi
  402141:	e8 f3 fc ff ff       	callq  401e39 <notify_server>
  402146:	bf 01 00 00 00       	mov    $0x1,%edi
  40214b:	e8 c0 f0 ff ff       	callq  401210 <exit@plt>

0000000000402150 <illegalhandler>:
  402150:	48 83 ec 08          	sub    $0x8,%rsp
  402154:	83 3d d5 43 00 00 00 	cmpl   $0x0,0x43d5(%rip)        # 406530 <is_checker>
  40215b:	74 14                	je     402171 <illegalhandler+0x21>
  40215d:	bf aa 46 40 00       	mov    $0x4046aa,%edi
  402162:	e8 19 ef ff ff       	callq  401080 <puts@plt>
  402167:	b8 00 00 00 00       	mov    $0x0,%eax
  40216c:	e8 47 fc ff ff       	callq  401db8 <check_fail>
  402171:	bf 80 43 40 00       	mov    $0x404380,%edi
  402176:	e8 05 ef ff ff       	callq  401080 <puts@plt>
  40217b:	bf 81 46 40 00       	mov    $0x404681,%edi
  402180:	e8 fb ee ff ff       	callq  401080 <puts@plt>
  402185:	be 00 00 00 00       	mov    $0x0,%esi
  40218a:	bf 00 00 00 00       	mov    $0x0,%edi
  40218f:	e8 a5 fc ff ff       	callq  401e39 <notify_server>
  402194:	bf 01 00 00 00       	mov    $0x1,%edi
  402199:	e8 72 f0 ff ff       	callq  401210 <exit@plt>

000000000040219e <sigalrmhandler>:
  40219e:	48 83 ec 08          	sub    $0x8,%rsp
  4021a2:	83 3d 87 43 00 00 00 	cmpl   $0x0,0x4387(%rip)        # 406530 <is_checker>
  4021a9:	74 14                	je     4021bf <sigalrmhandler+0x21>
  4021ab:	bf be 46 40 00       	mov    $0x4046be,%edi
  4021b0:	e8 cb ee ff ff       	callq  401080 <puts@plt>
  4021b5:	b8 00 00 00 00       	mov    $0x0,%eax
  4021ba:	e8 f9 fb ff ff       	callq  401db8 <check_fail>
  4021bf:	be 05 00 00 00       	mov    $0x5,%esi
  4021c4:	bf b0 43 40 00       	mov    $0x4043b0,%edi
  4021c9:	b8 00 00 00 00       	mov    $0x0,%eax
  4021ce:	e8 ed ee ff ff       	callq  4010c0 <printf@plt>
  4021d3:	be 00 00 00 00       	mov    $0x0,%esi
  4021d8:	bf 00 00 00 00       	mov    $0x0,%edi
  4021dd:	e8 57 fc ff ff       	callq  401e39 <notify_server>
  4021e2:	bf 01 00 00 00       	mov    $0x1,%edi
  4021e7:	e8 24 f0 ff ff       	callq  401210 <exit@plt>

00000000004021ec <launch>:
  4021ec:	55                   	push   %rbp
  4021ed:	48 89 e5             	mov    %rsp,%rbp
  4021f0:	48 89 fa             	mov    %rdi,%rdx
  4021f3:	48 8d 47 17          	lea    0x17(%rdi),%rax
  4021f7:	48 83 e0 f0          	and    $0xfffffffffffffff0,%rax
  4021fb:	48 29 c4             	sub    %rax,%rsp
  4021fe:	48 8d 7c 24 0f       	lea    0xf(%rsp),%rdi
  402203:	48 83 e7 f0          	and    $0xfffffffffffffff0,%rdi
  402207:	be f4 00 00 00       	mov    $0xf4,%esi
  40220c:	e8 bf ee ff ff       	callq  4010d0 <memset@plt>
  402211:	48 8b 05 88 42 00 00 	mov    0x4288(%rip),%rax        # 4064a0 <stdin@@GLIBC_2.2.5>
  402218:	48 39 05 f9 42 00 00 	cmp    %rax,0x42f9(%rip)        # 406518 <infile>
  40221f:	74 29                	je     40224a <launch+0x5e>
  402221:	c7 05 f9 42 00 00 00 	movl   $0x0,0x42f9(%rip)        # 406524 <vlevel>
  402228:	00 00 00 
  40222b:	b8 00 00 00 00       	mov    $0x0,%eax
  402230:	e8 f5 fa ff ff       	callq  401d2a <test>
  402235:	83 3d f4 42 00 00 00 	cmpl   $0x0,0x42f4(%rip)        # 406530 <is_checker>
  40223c:	75 1d                	jne    40225b <launch+0x6f>
  40223e:	bf de 46 40 00       	mov    $0x4046de,%edi
  402243:	e8 38 ee ff ff       	callq  401080 <puts@plt>
  402248:	c9                   	leaveq 
  402249:	c3                   	retq   
  40224a:	bf c6 46 40 00       	mov    $0x4046c6,%edi
  40224f:	b8 00 00 00 00       	mov    $0x0,%eax
  402254:	e8 67 ee ff ff       	callq  4010c0 <printf@plt>
  402259:	eb c6                	jmp    402221 <launch+0x35>
  40225b:	bf d3 46 40 00       	mov    $0x4046d3,%edi
  402260:	e8 1b ee ff ff       	callq  401080 <puts@plt>
  402265:	b8 00 00 00 00       	mov    $0x0,%eax
  40226a:	e8 49 fb ff ff       	callq  401db8 <check_fail>

000000000040226f <stable_launch>:
  40226f:	53                   	push   %rbx
  402270:	48 89 3d 99 42 00 00 	mov    %rdi,0x4299(%rip)        # 406510 <global_offset>
  402277:	41 b9 00 00 00 00    	mov    $0x0,%r9d
  40227d:	41 b8 00 00 00 00    	mov    $0x0,%r8d
  402283:	b9 32 01 00 00       	mov    $0x132,%ecx
  402288:	ba 07 00 00 00       	mov    $0x7,%edx
  40228d:	be 00 00 10 00       	mov    $0x100000,%esi
  402292:	bf 00 60 58 55       	mov    $0x55586000,%edi
  402297:	e8 14 ee ff ff       	callq  4010b0 <mmap@plt>
  40229c:	48 89 c3             	mov    %rax,%rbx
  40229f:	48 3d 00 60 58 55    	cmp    $0x55586000,%rax
  4022a5:	75 43                	jne    4022ea <stable_launch+0x7b>
  4022a7:	48 8d 90 f8 ff 0f 00 	lea    0xffff8(%rax),%rdx
  4022ae:	48 89 15 53 42 00 00 	mov    %rdx,0x4253(%rip)        # 406508 <stack_top>
  4022b5:	48 89 e0             	mov    %rsp,%rax
  4022b8:	48 89 d4             	mov    %rdx,%rsp
  4022bb:	48 89 c2             	mov    %rax,%rdx
  4022be:	48 89 15 3b 42 00 00 	mov    %rdx,0x423b(%rip)        # 406500 <global_save_stack>
  4022c5:	48 8b 3d 44 42 00 00 	mov    0x4244(%rip),%rdi        # 406510 <global_offset>
  4022cc:	e8 1b ff ff ff       	callq  4021ec <launch>
  4022d1:	48 8b 05 28 42 00 00 	mov    0x4228(%rip),%rax        # 406500 <global_save_stack>
  4022d8:	48 89 c4             	mov    %rax,%rsp
  4022db:	be 00 00 10 00       	mov    $0x100000,%esi
  4022e0:	48 89 df             	mov    %rbx,%rdi
  4022e3:	e8 b8 ee ff ff       	callq  4011a0 <munmap@plt>
  4022e8:	5b                   	pop    %rbx
  4022e9:	c3                   	retq   
  4022ea:	be 00 00 10 00       	mov    $0x100000,%esi
  4022ef:	48 89 c7             	mov    %rax,%rdi
  4022f2:	e8 a9 ee ff ff       	callq  4011a0 <munmap@plt>
  4022f7:	ba 00 60 58 55       	mov    $0x55586000,%edx
  4022fc:	be e8 43 40 00       	mov    $0x4043e8,%esi
  402301:	48 8b 3d d8 41 00 00 	mov    0x41d8(%rip),%rdi        # 4064e0 <stderr@@GLIBC_2.2.5>
  402308:	b8 00 00 00 00       	mov    $0x0,%eax
  40230d:	e8 2e ee ff ff       	callq  401140 <fprintf@plt>
  402312:	bf 01 00 00 00       	mov    $0x1,%edi
  402317:	e8 f4 ee ff ff       	callq  401210 <exit@plt>
  40231c:	66 2e 0f 1f 84 00 00 	nopw   %cs:0x0(%rax,%rax,1)
  402323:	00 00 00 
  402326:	66 2e 0f 1f 84 00 00 	nopw   %cs:0x0(%rax,%rax,1)
  40232d:	00 00 00 
  402330:	66 2e 0f 1f 84 00 00 	nopw   %cs:0x0(%rax,%rax,1)
  402337:	00 00 00 
  40233a:	66 0f 1f 44 00 00    	nopw   0x0(%rax,%rax,1)

0000000000402340 <rio_readinitb>:
  402340:	89 37                	mov    %esi,(%rdi)
  402342:	c7 47 04 00 00 00 00 	movl   $0x0,0x4(%rdi)
  402349:	48 8d 47 10          	lea    0x10(%rdi),%rax
  40234d:	48 89 47 08          	mov    %rax,0x8(%rdi)
  402351:	c3                   	retq   

0000000000402352 <sigalrm_handler>:
  402352:	48 83 ec 08          	sub    $0x8,%rsp
  402356:	ba 00 00 00 00       	mov    $0x0,%edx
  40235b:	be 10 44 40 00       	mov    $0x404410,%esi
  402360:	48 8b 3d 79 41 00 00 	mov    0x4179(%rip),%rdi        # 4064e0 <stderr@@GLIBC_2.2.5>
  402367:	b8 00 00 00 00       	mov    $0x0,%eax
  40236c:	e8 cf ed ff ff       	callq  401140 <fprintf@plt>
  402371:	bf 01 00 00 00       	mov    $0x1,%edi
  402376:	e8 95 ee ff ff       	callq  401210 <exit@plt>

000000000040237b <urlencode>:
  40237b:	41 54                	push   %r12
  40237d:	55                   	push   %rbp
  40237e:	53                   	push   %rbx
  40237f:	48 83 ec 10          	sub    $0x10,%rsp
  402383:	48 89 fb             	mov    %rdi,%rbx
  402386:	48 89 f5             	mov    %rsi,%rbp
  402389:	e8 12 ed ff ff       	callq  4010a0 <strlen@plt>
  40238e:	eb 3e                	jmp    4023ce <urlencode+0x53>
  402390:	66 66 2e 0f 1f 84 00 	data16 nopw %cs:0x0(%rax,%rax,1)
  402397:	00 00 00 00 
  40239b:	66 66 2e 0f 1f 84 00 	data16 nopw %cs:0x0(%rax,%rax,1)
  4023a2:	00 00 00 00 
  4023a6:	66 66 2e 0f 1f 84 00 	data16 nopw %cs:0x0(%rax,%rax,1)
  4023ad:	00 00 00 00 
  4023b1:	66 66 2e 0f 1f 84 00 	data16 nopw %cs:0x0(%rax,%rax,1)
  4023b8:	00 00 00 00 
  4023bc:	0f 1f 40 00          	nopl   0x0(%rax)
  4023c0:	88 55 00             	mov    %dl,0x0(%rbp)
  4023c3:	48 8d 6d 01          	lea    0x1(%rbp),%rbp
  4023c7:	48 83 c3 01          	add    $0x1,%rbx
  4023cb:	44 89 e0             	mov    %r12d,%eax
  4023ce:	44 8d 60 ff          	lea    -0x1(%rax),%r12d
  4023d2:	85 c0                	test   %eax,%eax
  4023d4:	0f 84 93 00 00 00    	je     40246d <urlencode+0xf2>
  4023da:	0f b6 13             	movzbl (%rbx),%edx
  4023dd:	80 fa 2a             	cmp    $0x2a,%dl
  4023e0:	0f 94 c0             	sete   %al
  4023e3:	80 fa 2d             	cmp    $0x2d,%dl
  4023e6:	0f 94 c1             	sete   %cl
  4023e9:	08 c8                	or     %cl,%al
  4023eb:	75 d3                	jne    4023c0 <urlencode+0x45>
  4023ed:	80 fa 2e             	cmp    $0x2e,%dl
  4023f0:	74 ce                	je     4023c0 <urlencode+0x45>
  4023f2:	80 fa 5f             	cmp    $0x5f,%dl
  4023f5:	74 c9                	je     4023c0 <urlencode+0x45>
  4023f7:	8d 42 d0             	lea    -0x30(%rdx),%eax
  4023fa:	3c 09                	cmp    $0x9,%al
  4023fc:	76 c2                	jbe    4023c0 <urlencode+0x45>
  4023fe:	8d 42 bf             	lea    -0x41(%rdx),%eax
  402401:	3c 19                	cmp    $0x19,%al
  402403:	76 bb                	jbe    4023c0 <urlencode+0x45>
  402405:	8d 42 9f             	lea    -0x61(%rdx),%eax
  402408:	3c 19                	cmp    $0x19,%al
  40240a:	76 b4                	jbe    4023c0 <urlencode+0x45>
  40240c:	80 fa 20             	cmp    $0x20,%dl
  40240f:	74 4a                	je     40245b <urlencode+0xe0>
  402411:	8d 42 e0             	lea    -0x20(%rdx),%eax
  402414:	3c 5f                	cmp    $0x5f,%al
  402416:	0f 96 c0             	setbe  %al
  402419:	80 fa 09             	cmp    $0x9,%dl
  40241c:	0f 94 c1             	sete   %cl
  40241f:	08 c8                	or     %cl,%al
  402421:	74 45                	je     402468 <urlencode+0xed>
  402423:	0f b6 d2             	movzbl %dl,%edx
  402426:	48 8d 7c 24 08       	lea    0x8(%rsp),%rdi
  40242b:	be ec 46 40 00       	mov    $0x4046ec,%esi
  402430:	b8 00 00 00 00       	mov    $0x0,%eax
  402435:	e8 c6 ed ff ff       	callq  401200 <sprintf@plt>
  40243a:	0f b6 44 24 08       	movzbl 0x8(%rsp),%eax
  40243f:	88 45 00             	mov    %al,0x0(%rbp)
  402442:	0f b6 44 24 09       	movzbl 0x9(%rsp),%eax
  402447:	88 45 01             	mov    %al,0x1(%rbp)
  40244a:	0f b6 44 24 0a       	movzbl 0xa(%rsp),%eax
  40244f:	88 45 02             	mov    %al,0x2(%rbp)
  402452:	48 8d 6d 03          	lea    0x3(%rbp),%rbp
  402456:	e9 6c ff ff ff       	jmpq   4023c7 <urlencode+0x4c>
  40245b:	c6 45 00 2b          	movb   $0x2b,0x0(%rbp)
  40245f:	48 8d 6d 01          	lea    0x1(%rbp),%rbp
  402463:	e9 5f ff ff ff       	jmpq   4023c7 <urlencode+0x4c>
  402468:	b8 ff ff ff ff       	mov    $0xffffffff,%eax
  40246d:	48 83 c4 10          	add    $0x10,%rsp
  402471:	5b                   	pop    %rbx
  402472:	5d                   	pop    %rbp
  402473:	41 5c                	pop    %r12
  402475:	c3                   	retq   

0000000000402476 <rio_writen>:
  402476:	41 55                	push   %r13
  402478:	41 54                	push   %r12
  40247a:	55                   	push   %rbp
  40247b:	53                   	push   %rbx
  40247c:	48 83 ec 08          	sub    $0x8,%rsp
  402480:	41 89 fc             	mov    %edi,%r12d
  402483:	48 89 f5             	mov    %rsi,%rbp
  402486:	49 89 d5             	mov    %rdx,%r13
  402489:	48 89 d3             	mov    %rdx,%rbx
  40248c:	eb 06                	jmp    402494 <rio_writen+0x1e>
  40248e:	48 29 c3             	sub    %rax,%rbx
  402491:	48 01 c5             	add    %rax,%rbp
  402494:	48 85 db             	test   %rbx,%rbx
  402497:	74 24                	je     4024bd <rio_writen+0x47>
  402499:	48 89 da             	mov    %rbx,%rdx
  40249c:	48 89 ee             	mov    %rbp,%rsi
  40249f:	44 89 e7             	mov    %r12d,%edi
  4024a2:	e8 e9 eb ff ff       	callq  401090 <write@plt>
  4024a7:	48 85 c0             	test   %rax,%rax
  4024aa:	7f e2                	jg     40248e <rio_writen+0x18>
  4024ac:	e8 8f eb ff ff       	callq  401040 <__errno_location@plt>
  4024b1:	83 38 04             	cmpl   $0x4,(%rax)
  4024b4:	75 15                	jne    4024cb <rio_writen+0x55>
  4024b6:	b8 00 00 00 00       	mov    $0x0,%eax
  4024bb:	eb d1                	jmp    40248e <rio_writen+0x18>
  4024bd:	4c 89 e8             	mov    %r13,%rax
  4024c0:	48 83 c4 08          	add    $0x8,%rsp
  4024c4:	5b                   	pop    %rbx
  4024c5:	5d                   	pop    %rbp
  4024c6:	41 5c                	pop    %r12
  4024c8:	41 5d                	pop    %r13
  4024ca:	c3                   	retq   
  4024cb:	48 c7 c0 ff ff ff ff 	mov    $0xffffffffffffffff,%rax
  4024d2:	eb ec                	jmp    4024c0 <rio_writen+0x4a>

00000000004024d4 <rio_read>:
  4024d4:	41 55                	push   %r13
  4024d6:	41 54                	push   %r12
  4024d8:	55                   	push   %rbp
  4024d9:	53                   	push   %rbx
  4024da:	48 83 ec 08          	sub    $0x8,%rsp
  4024de:	48 89 fb             	mov    %rdi,%rbx
  4024e1:	49 89 f5             	mov    %rsi,%r13
  4024e4:	49 89 d4             	mov    %rdx,%r12
  4024e7:	eb 0a                	jmp    4024f3 <rio_read+0x1f>
  4024e9:	e8 52 eb ff ff       	callq  401040 <__errno_location@plt>
  4024ee:	83 38 04             	cmpl   $0x4,(%rax)
  4024f1:	75 5f                	jne    402552 <rio_read+0x7e>
  4024f3:	8b 6b 04             	mov    0x4(%rbx),%ebp
  4024f6:	85 ed                	test   %ebp,%ebp
  4024f8:	7f 22                	jg     40251c <rio_read+0x48>
  4024fa:	48 8d 6b 10          	lea    0x10(%rbx),%rbp
  4024fe:	8b 3b                	mov    (%rbx),%edi
  402500:	ba 00 20 00 00       	mov    $0x2000,%edx
  402505:	48 89 ee             	mov    %rbp,%rsi
  402508:	e8 f3 eb ff ff       	callq  401100 <read@plt>
  40250d:	89 43 04             	mov    %eax,0x4(%rbx)
  402510:	85 c0                	test   %eax,%eax
  402512:	78 d5                	js     4024e9 <rio_read+0x15>
  402514:	74 45                	je     40255b <rio_read+0x87>
  402516:	48 89 6b 08          	mov    %rbp,0x8(%rbx)
  40251a:	eb d7                	jmp    4024f3 <rio_read+0x1f>
  40251c:	89 e8                	mov    %ebp,%eax
  40251e:	4c 39 e0             	cmp    %r12,%rax
  402521:	72 03                	jb     402526 <rio_read+0x52>
  402523:	44 89 e5             	mov    %r12d,%ebp
  402526:	4c 63 e5             	movslq %ebp,%r12
  402529:	48 8b 73 08          	mov    0x8(%rbx),%rsi
  40252d:	4c 89 e2             	mov    %r12,%rdx
  402530:	4c 89 ef             	mov    %r13,%rdi
  402533:	e8 28 ec ff ff       	callq  401160 <memcpy@plt>
  402538:	4c 01 63 08          	add    %r12,0x8(%rbx)
  40253c:	8b 43 04             	mov    0x4(%rbx),%eax
  40253f:	29 e8                	sub    %ebp,%eax
  402541:	89 43 04             	mov    %eax,0x4(%rbx)
  402544:	4c 89 e0             	mov    %r12,%rax
  402547:	48 83 c4 08          	add    $0x8,%rsp
  40254b:	5b                   	pop    %rbx
  40254c:	5d                   	pop    %rbp
  40254d:	41 5c                	pop    %r12
  40254f:	41 5d                	pop    %r13
  402551:	c3                   	retq   
  402552:	48 c7 c0 ff ff ff ff 	mov    $0xffffffffffffffff,%rax
  402559:	eb ec                	jmp    402547 <rio_read+0x73>
  40255b:	b8 00 00 00 00       	mov    $0x0,%eax
  402560:	eb e5                	jmp    402547 <rio_read+0x73>

0000000000402562 <rio_readlineb>:
  402562:	41 55                	push   %r13
  402564:	41 54                	push   %r12
  402566:	55                   	push   %rbp
  402567:	53                   	push   %rbx
  402568:	48 83 ec 18          	sub    $0x18,%rsp
  40256c:	49 89 fd             	mov    %rdi,%r13
  40256f:	48 89 f5             	mov    %rsi,%rbp
  402572:	49 89 d4             	mov    %rdx,%r12
  402575:	bb 01 00 00 00       	mov    $0x1,%ebx
  40257a:	eb 18                	jmp    402594 <rio_readlineb+0x32>
  40257c:	85 c0                	test   %eax,%eax
  40257e:	75 55                	jne    4025d5 <rio_readlineb+0x73>
  402580:	48 83 fb 01          	cmp    $0x1,%rbx
  402584:	75 3d                	jne    4025c3 <rio_readlineb+0x61>
  402586:	b8 00 00 00 00       	mov    $0x0,%eax
  40258b:	eb 3d                	jmp    4025ca <rio_readlineb+0x68>
  40258d:	48 83 c3 01          	add    $0x1,%rbx
  402591:	48 89 d5             	mov    %rdx,%rbp
  402594:	4c 39 e3             	cmp    %r12,%rbx
  402597:	73 2a                	jae    4025c3 <rio_readlineb+0x61>
  402599:	48 8d 74 24 0f       	lea    0xf(%rsp),%rsi
  40259e:	ba 01 00 00 00       	mov    $0x1,%edx
  4025a3:	4c 89 ef             	mov    %r13,%rdi
  4025a6:	e8 29 ff ff ff       	callq  4024d4 <rio_read>
  4025ab:	83 f8 01             	cmp    $0x1,%eax
  4025ae:	75 cc                	jne    40257c <rio_readlineb+0x1a>
  4025b0:	48 8d 55 01          	lea    0x1(%rbp),%rdx
  4025b4:	0f b6 44 24 0f       	movzbl 0xf(%rsp),%eax
  4025b9:	88 45 00             	mov    %al,0x0(%rbp)
  4025bc:	3c 0a                	cmp    $0xa,%al
  4025be:	75 cd                	jne    40258d <rio_readlineb+0x2b>
  4025c0:	48 89 d5             	mov    %rdx,%rbp
  4025c3:	c6 45 00 00          	movb   $0x0,0x0(%rbp)
  4025c7:	48 89 d8             	mov    %rbx,%rax
  4025ca:	48 83 c4 18          	add    $0x18,%rsp
  4025ce:	5b                   	pop    %rbx
  4025cf:	5d                   	pop    %rbp
  4025d0:	41 5c                	pop    %r12
  4025d2:	41 5d                	pop    %r13
  4025d4:	c3                   	retq   
  4025d5:	48 c7 c0 ff ff ff ff 	mov    $0xffffffffffffffff,%rax
  4025dc:	eb ec                	jmp    4025ca <rio_readlineb+0x68>

00000000004025de <submitr>:
  4025de:	41 57                	push   %r15
  4025e0:	41 56                	push   %r14
  4025e2:	41 55                	push   %r13
  4025e4:	41 54                	push   %r12
  4025e6:	55                   	push   %rbp
  4025e7:	53                   	push   %rbx
  4025e8:	48 81 ec 58 c0 00 00 	sub    $0xc058,%rsp
  4025ef:	48 89 fd             	mov    %rdi,%rbp
  4025f2:	41 89 f7             	mov    %esi,%r15d
  4025f5:	49 89 d5             	mov    %rdx,%r13
  4025f8:	48 89 4c 24 08       	mov    %rcx,0x8(%rsp)
  4025fd:	4c 89 c3             	mov    %r8,%rbx
  402600:	4c 89 44 24 10       	mov    %r8,0x10(%rsp)
  402605:	4d 89 cc             	mov    %r9,%r12
  402608:	4c 8b b4 24 90 c0 00 	mov    0xc090(%rsp),%r14
  40260f:	00 
  402610:	c7 84 24 2c 20 00 00 	movl   $0x0,0x202c(%rsp)
  402617:	00 00 00 00 
  40261b:	bf 38 44 40 00       	mov    $0x404438,%edi
  402620:	e8 5b ea ff ff       	callq  401080 <puts@plt>
  402625:	48 89 ee             	mov    %rbp,%rsi
  402628:	bf f3 46 40 00       	mov    $0x4046f3,%edi
  40262d:	b8 00 00 00 00       	mov    $0x0,%eax
  402632:	e8 89 ea ff ff       	callq  4010c0 <printf@plt>
  402637:	44 89 fe             	mov    %r15d,%esi
  40263a:	bf 01 47 40 00       	mov    $0x404701,%edi
  40263f:	b8 00 00 00 00       	mov    $0x0,%eax
  402644:	e8 77 ea ff ff       	callq  4010c0 <printf@plt>
  402649:	4c 89 ee             	mov    %r13,%rsi
  40264c:	bf 0b 47 40 00       	mov    $0x40470b,%edi
  402651:	b8 00 00 00 00       	mov    $0x0,%eax
  402656:	e8 65 ea ff ff       	callq  4010c0 <printf@plt>
  40265b:	48 8b 74 24 08       	mov    0x8(%rsp),%rsi
  402660:	bf 17 47 40 00       	mov    $0x404717,%edi
  402665:	b8 00 00 00 00       	mov    $0x0,%eax
  40266a:	e8 51 ea ff ff       	callq  4010c0 <printf@plt>
  40266f:	48 89 de             	mov    %rbx,%rsi
  402672:	bf 23 47 40 00       	mov    $0x404723,%edi
  402677:	b8 00 00 00 00       	mov    $0x0,%eax
  40267c:	e8 3f ea ff ff       	callq  4010c0 <printf@plt>
  402681:	4c 89 e6             	mov    %r12,%rsi
  402684:	bf 2c 47 40 00       	mov    $0x40472c,%edi
  402689:	b8 00 00 00 00       	mov    $0x0,%eax
  40268e:	e8 2d ea ff ff       	callq  4010c0 <printf@plt>
  402693:	ba 00 00 00 00       	mov    $0x0,%edx
  402698:	be 01 00 00 00       	mov    $0x1,%esi
  40269d:	bf 02 00 00 00       	mov    $0x2,%edi
  4026a2:	e8 99 eb ff ff       	callq  401240 <socket@plt>
  4026a7:	85 c0                	test   %eax,%eax
  4026a9:	0f 88 06 02 00 00    	js     4028b5 <submitr+0x2d7>
  4026af:	89 c3                	mov    %eax,%ebx
  4026b1:	48 89 ef             	mov    %rbp,%rdi
  4026b4:	e8 77 ea ff ff       	callq  401130 <gethostbyname@plt>
  4026b9:	48 85 c0             	test   %rax,%rax
  4026bc:	0f 84 42 02 00 00    	je     402904 <submitr+0x326>
  4026c2:	66 0f ef c0          	pxor   %xmm0,%xmm0
  4026c6:	0f 29 84 24 40 c0 00 	movaps %xmm0,0xc040(%rsp)
  4026cd:	00 
  4026ce:	66 c7 84 24 40 c0 00 	movw   $0x2,0xc040(%rsp)
  4026d5:	00 02 00 
  4026d8:	48 8b 48 18          	mov    0x18(%rax),%rcx
  4026dc:	48 63 50 14          	movslq 0x14(%rax),%rdx
  4026e0:	48 8b 31             	mov    (%rcx),%rsi
  4026e3:	48 8d bc 24 44 c0 00 	lea    0xc044(%rsp),%rdi
  4026ea:	00 
  4026eb:	e8 c0 ea ff ff       	callq  4011b0 <memmove@plt>
  4026f0:	66 41 c1 c7 08       	rol    $0x8,%r15w
  4026f5:	66 44 89 bc 24 42 c0 	mov    %r15w,0xc042(%rsp)
  4026fc:	00 00 
  4026fe:	ba 10 00 00 00       	mov    $0x10,%edx
  402703:	48 8d b4 24 40 c0 00 	lea    0xc040(%rsp),%rsi
  40270a:	00 
  40270b:	89 df                	mov    %ebx,%edi
  40270d:	e8 0e eb ff ff       	callq  401220 <connect@plt>
  402712:	85 c0                	test   %eax,%eax
  402714:	0f 88 4e 02 00 00    	js     402968 <submitr+0x38a>
  40271a:	4c 89 e7             	mov    %r12,%rdi
  40271d:	e8 7e e9 ff ff       	callq  4010a0 <strlen@plt>
  402722:	48 89 44 24 18       	mov    %rax,0x18(%rsp)
  402727:	4c 89 ef             	mov    %r13,%rdi
  40272a:	e8 71 e9 ff ff       	callq  4010a0 <strlen@plt>
  40272f:	49 89 c7             	mov    %rax,%r15
  402732:	48 8b 7c 24 08       	mov    0x8(%rsp),%rdi
  402737:	e8 64 e9 ff ff       	callq  4010a0 <strlen@plt>
  40273c:	49 01 c7             	add    %rax,%r15
  40273f:	48 8b 7c 24 10       	mov    0x10(%rsp),%rdi
  402744:	e8 57 e9 ff ff       	callq  4010a0 <strlen@plt>
  402749:	49 01 c7             	add    %rax,%r15
  40274c:	48 8b 44 24 18       	mov    0x18(%rsp),%rax
  402751:	48 8d 04 40          	lea    (%rax,%rax,2),%rax
  402755:	49 8d 84 07 80 00 00 	lea    0x80(%r15,%rax,1),%rax
  40275c:	00 
  40275d:	48 3d 00 20 00 00    	cmp    $0x2000,%rax
  402763:	0f 87 55 02 00 00    	ja     4029be <submitr+0x3e0>
  402769:	48 8d b4 24 30 40 00 	lea    0x4030(%rsp),%rsi
  402770:	00 
  402771:	b9 00 04 00 00       	mov    $0x400,%ecx
  402776:	b8 00 00 00 00       	mov    $0x0,%eax
  40277b:	48 89 f7             	mov    %rsi,%rdi
  40277e:	f3 48 ab             	rep stos %rax,%es:(%rdi)
  402781:	4c 89 e7             	mov    %r12,%rdi
  402784:	e8 f2 fb ff ff       	callq  40237b <urlencode>
  402789:	85 c0                	test   %eax,%eax
  40278b:	0f 88 9f 02 00 00    	js     402a30 <submitr+0x452>
  402791:	4c 8d a4 24 30 60 00 	lea    0x6030(%rsp),%r12
  402798:	00 
  402799:	49 89 e9             	mov    %rbp,%r9
  40279c:	4c 8d 84 24 30 40 00 	lea    0x4030(%rsp),%r8
  4027a3:	00 
  4027a4:	4c 89 e9             	mov    %r13,%rcx
  4027a7:	48 8b 54 24 08       	mov    0x8(%rsp),%rdx
  4027ac:	be 58 44 40 00       	mov    $0x404458,%esi
  4027b1:	4c 89 e7             	mov    %r12,%rdi
  4027b4:	b8 00 00 00 00       	mov    $0x0,%eax
  4027b9:	e8 42 ea ff ff       	callq  401200 <sprintf@plt>
  4027be:	4c 89 e6             	mov    %r12,%rsi
  4027c1:	bf 38 47 40 00       	mov    $0x404738,%edi
  4027c6:	b8 00 00 00 00       	mov    $0x0,%eax
  4027cb:	e8 f0 e8 ff ff       	callq  4010c0 <printf@plt>
  4027d0:	4c 89 e7             	mov    %r12,%rdi
  4027d3:	e8 c8 e8 ff ff       	callq  4010a0 <strlen@plt>
  4027d8:	48 89 c2             	mov    %rax,%rdx
  4027db:	4c 89 e6             	mov    %r12,%rsi
  4027de:	89 df                	mov    %ebx,%edi
  4027e0:	e8 91 fc ff ff       	callq  402476 <rio_writen>
  4027e5:	48 85 c0             	test   %rax,%rax
  4027e8:	0f 88 ca 02 00 00    	js     402ab8 <submitr+0x4da>
  4027ee:	48 8d ac 24 30 a0 00 	lea    0xa030(%rsp),%rbp
  4027f5:	00 
  4027f6:	89 de                	mov    %ebx,%esi
  4027f8:	48 89 ef             	mov    %rbp,%rdi
  4027fb:	e8 40 fb ff ff       	callq  402340 <rio_readinitb>
  402800:	48 8d b4 24 30 60 00 	lea    0x6030(%rsp),%rsi
  402807:	00 
  402808:	ba 00 20 00 00       	mov    $0x2000,%edx
  40280d:	48 89 ef             	mov    %rbp,%rdi
  402810:	e8 4d fd ff ff       	callq  402562 <rio_readlineb>
  402815:	48 85 c0             	test   %rax,%rax
  402818:	0f 8e 06 03 00 00    	jle    402b24 <submitr+0x546>
  40281e:	48 8d ac 24 30 60 00 	lea    0x6030(%rsp),%rbp
  402825:	00 
  402826:	48 89 ee             	mov    %rbp,%rsi
  402829:	bf 4a 47 40 00       	mov    $0x40474a,%edi
  40282e:	b8 00 00 00 00       	mov    $0x0,%eax
  402833:	e8 88 e8 ff ff       	callq  4010c0 <printf@plt>
  402838:	48 8d 8c 24 2c 20 00 	lea    0x202c(%rsp),%rcx
  40283f:	00 
  402840:	48 8d 94 24 30 20 00 	lea    0x2030(%rsp),%rdx
  402847:	00 
  402848:	4c 8d 44 24 20       	lea    0x20(%rsp),%r8
  40284d:	be 5c 47 40 00       	mov    $0x40475c,%esi
  402852:	48 89 ef             	mov    %rbp,%rdi
  402855:	b8 00 00 00 00       	mov    $0x0,%eax
  40285a:	e8 31 e9 ff ff       	callq  401190 <__isoc99_sscanf@plt>
  40285f:	48 8d bc 24 30 60 00 	lea    0x6030(%rsp),%rdi
  402866:	00 
  402867:	be c0 47 40 00       	mov    $0x4047c0,%esi
  40286c:	e8 9f e8 ff ff       	callq  401110 <strcmp@plt>
  402871:	85 c0                	test   %eax,%eax
  402873:	0f 84 b5 03 00 00    	je     402c2e <submitr+0x650>
  402879:	48 8d b4 24 30 60 00 	lea    0x6030(%rsp),%rsi
  402880:	00 
  402881:	48 8d bc 24 30 a0 00 	lea    0xa030(%rsp),%rdi
  402888:	00 
  402889:	ba 00 20 00 00       	mov    $0x2000,%edx
  40288e:	e8 cf fc ff ff       	callq  402562 <rio_readlineb>
  402893:	48 85 c0             	test   %rax,%rax
  402896:	0f 8e 05 03 00 00    	jle    402ba1 <submitr+0x5c3>
  40289c:	48 8d b4 24 30 60 00 	lea    0x6030(%rsp),%rsi
  4028a3:	00 
  4028a4:	bf 6d 47 40 00       	mov    $0x40476d,%edi
  4028a9:	b8 00 00 00 00       	mov    $0x0,%eax
  4028ae:	e8 0d e8 ff ff       	callq  4010c0 <printf@plt>
  4028b3:	eb aa                	jmp    40285f <submitr+0x281>
  4028b5:	48 b8 45 72 72 6f 72 	movabs $0x43203a726f727245,%rax
  4028bc:	3a 20 43 
  4028bf:	48 ba 6c 69 65 6e 74 	movabs $0x6e7520746e65696c,%rdx
  4028c6:	20 75 6e 
  4028c9:	49 89 06             	mov    %rax,(%r14)
  4028cc:	49 89 56 08          	mov    %rdx,0x8(%r14)
  4028d0:	48 b8 61 62 6c 65 20 	movabs $0x206f7420656c6261,%rax
  4028d7:	74 6f 20 
  4028da:	48 ba 63 72 65 61 74 	movabs $0x7320657461657263,%rdx
  4028e1:	65 20 73 
  4028e4:	49 89 46 10          	mov    %rax,0x10(%r14)
  4028e8:	49 89 56 18          	mov    %rdx,0x18(%r14)
  4028ec:	48 b8 20 73 6f 63 6b 	movabs $0x74656b636f7320,%rax
  4028f3:	65 74 00 
  4028f6:	49 89 46 1e          	mov    %rax,0x1e(%r14)
  4028fa:	b8 ff ff ff ff       	mov    $0xffffffff,%eax
  4028ff:	e9 18 03 00 00       	jmpq   402c1c <submitr+0x63e>
  402904:	48 b8 45 72 72 6f 72 	movabs $0x44203a726f727245,%rax
  40290b:	3a 20 44 
  40290e:	48 ba 4e 53 20 69 73 	movabs $0x6e7520736920534e,%rdx
  402915:	20 75 6e 
  402918:	49 89 06             	mov    %rax,(%r14)
  40291b:	49 89 56 08          	mov    %rdx,0x8(%r14)
  40291f:	48 b8 61 62 6c 65 20 	movabs $0x206f7420656c6261,%rax
  402926:	74 6f 20 
  402929:	48 ba 72 65 73 6f 6c 	movabs $0x2065766c6f736572,%rdx
  402930:	76 65 20 
  402933:	49 89 46 10          	mov    %rax,0x10(%r14)
  402937:	49 89 56 18          	mov    %rdx,0x18(%r14)
  40293b:	48 b8 20 73 65 72 76 	movabs $0x2072657672657320,%rax
  402942:	65 72 20 
  402945:	48 ba 61 64 64 72 65 	movabs $0x73736572646461,%rdx
  40294c:	73 73 00 
  40294f:	49 89 46 1f          	mov    %rax,0x1f(%r14)
  402953:	49 89 56 27          	mov    %rdx,0x27(%r14)
  402957:	89 df                	mov    %ebx,%edi
  402959:	e8 92 e7 ff ff       	callq  4010f0 <close@plt>
  40295e:	b8 ff ff ff ff       	mov    $0xffffffff,%eax
  402963:	e9 b4 02 00 00       	jmpq   402c1c <submitr+0x63e>
  402968:	48 b8 45 72 72 6f 72 	movabs $0x55203a726f727245,%rax
  40296f:	3a 20 55 
  402972:	48 ba 6e 61 62 6c 65 	movabs $0x6f7420656c62616e,%rdx
  402979:	20 74 6f 
  40297c:	49 89 06             	mov    %rax,(%r14)
  40297f:	49 89 56 08          	mov    %rdx,0x8(%r14)
  402983:	48 b8 20 63 6f 6e 6e 	movabs $0x7463656e6e6f6320,%rax
  40298a:	65 63 74 
  40298d:	48 ba 20 74 6f 20 74 	movabs $0x20656874206f7420,%rdx
  402994:	68 65 20 
  402997:	49 89 46 10          	mov    %rax,0x10(%r14)
  40299b:	49 89 56 18          	mov    %rdx,0x18(%r14)
  40299f:	48 b8 20 73 65 72 76 	movabs $0x72657672657320,%rax
  4029a6:	65 72 00 
  4029a9:	49 89 46 1f          	mov    %rax,0x1f(%r14)
  4029ad:	89 df                	mov    %ebx,%edi
  4029af:	e8 3c e7 ff ff       	callq  4010f0 <close@plt>
  4029b4:	b8 ff ff ff ff       	mov    $0xffffffff,%eax
  4029b9:	e9 5e 02 00 00       	jmpq   402c1c <submitr+0x63e>
  4029be:	48 b8 45 72 72 6f 72 	movabs $0x52203a726f727245,%rax
  4029c5:	3a 20 52 
  4029c8:	48 ba 65 73 75 6c 74 	movabs $0x747320746c757365,%rdx
  4029cf:	20 73 74 
  4029d2:	49 89 06             	mov    %rax,(%r14)
  4029d5:	49 89 56 08          	mov    %rdx,0x8(%r14)
  4029d9:	48 b8 72 69 6e 67 20 	movabs $0x6f6f7420676e6972,%rax
  4029e0:	74 6f 6f 
  4029e3:	48 ba 20 6c 61 72 67 	movabs $0x202e656772616c20,%rdx
  4029ea:	65 2e 20 
  4029ed:	49 89 46 10          	mov    %rax,0x10(%r14)
  4029f1:	49 89 56 18          	mov    %rdx,0x18(%r14)
  4029f5:	48 b8 49 6e 63 72 65 	movabs $0x6573616572636e49,%rax
  4029fc:	61 73 65 
  4029ff:	48 ba 20 53 55 42 4d 	movabs $0x5254494d42555320,%rdx
  402a06:	49 54 52 
  402a09:	49 89 46 20          	mov    %rax,0x20(%r14)
  402a0d:	49 89 56 28          	mov    %rdx,0x28(%r14)
  402a11:	48 b8 5f 4d 41 58 42 	movabs $0x46554258414d5f,%rax
  402a18:	55 46 00 
  402a1b:	49 89 46 30          	mov    %rax,0x30(%r14)
  402a1f:	89 df                	mov    %ebx,%edi
  402a21:	e8 ca e6 ff ff       	callq  4010f0 <close@plt>
  402a26:	b8 ff ff ff ff       	mov    $0xffffffff,%eax
  402a2b:	e9 ec 01 00 00       	jmpq   402c1c <submitr+0x63e>
  402a30:	48 b8 45 72 72 6f 72 	movabs $0x52203a726f727245,%rax
  402a37:	3a 20 52 
  402a3a:	48 ba 65 73 75 6c 74 	movabs $0x747320746c757365,%rdx
  402a41:	20 73 74 
  402a44:	49 89 06             	mov    %rax,(%r14)
  402a47:	49 89 56 08          	mov    %rdx,0x8(%r14)
  402a4b:	48 b8 72 69 6e 67 20 	movabs $0x6e6f6320676e6972,%rax
  402a52:	63 6f 6e 
  402a55:	48 ba 74 61 69 6e 73 	movabs $0x6e6120736e696174,%rdx
  402a5c:	20 61 6e 
  402a5f:	49 89 46 10          	mov    %rax,0x10(%r14)
  402a63:	49 89 56 18          	mov    %rdx,0x18(%r14)
  402a67:	48 b8 20 69 6c 6c 65 	movabs $0x6c6167656c6c6920,%rax
  402a6e:	67 61 6c 
  402a71:	48 ba 20 6f 72 20 75 	movabs $0x72706e7520726f20,%rdx
  402a78:	6e 70 72 
  402a7b:	49 89 46 20          	mov    %rax,0x20(%r14)
  402a7f:	49 89 56 28          	mov    %rdx,0x28(%r14)
  402a83:	48 b8 69 6e 74 61 62 	movabs $0x20656c6261746e69,%rax
  402a8a:	6c 65 20 
  402a8d:	48 ba 63 68 61 72 61 	movabs $0x6574636172616863,%rdx
  402a94:	63 74 65 
  402a97:	49 89 46 30          	mov    %rax,0x30(%r14)
  402a9b:	49 89 56 38          	mov    %rdx,0x38(%r14)
  402a9f:	41 c7 46 3f 65 72 2e 	movl   $0x2e7265,0x3f(%r14)
  402aa6:	00 
  402aa7:	89 df                	mov    %ebx,%edi
  402aa9:	e8 42 e6 ff ff       	callq  4010f0 <close@plt>
  402aae:	b8 ff ff ff ff       	mov    $0xffffffff,%eax
  402ab3:	e9 64 01 00 00       	jmpq   402c1c <submitr+0x63e>
  402ab8:	48 b8 45 72 72 6f 72 	movabs $0x43203a726f727245,%rax
  402abf:	3a 20 43 
  402ac2:	48 ba 6c 69 65 6e 74 	movabs $0x6e7520746e65696c,%rdx
  402ac9:	20 75 6e 
  402acc:	49 89 06             	mov    %rax,(%r14)
  402acf:	49 89 56 08          	mov    %rdx,0x8(%r14)
  402ad3:	48 b8 61 62 6c 65 20 	movabs $0x206f7420656c6261,%rax
  402ada:	74 6f 20 
  402add:	48 ba 77 72 69 74 65 	movabs $0x6f74206574697277,%rdx
  402ae4:	20 74 6f 
  402ae7:	49 89 46 10          	mov    %rax,0x10(%r14)
  402aeb:	49 89 56 18          	mov    %rdx,0x18(%r14)
  402aef:	48 b8 20 74 68 65 20 	movabs $0x7365722065687420,%rax
  402af6:	72 65 73 
  402af9:	48 ba 75 6c 74 20 73 	movabs $0x7672657320746c75,%rdx
  402b00:	65 72 76 
  402b03:	49 89 46 20          	mov    %rax,0x20(%r14)
  402b07:	49 89 56 28          	mov    %rdx,0x28(%r14)
  402b0b:	41 c7 46 2f 76 65 72 	movl   $0x726576,0x2f(%r14)
  402b12:	00 
  402b13:	89 df                	mov    %ebx,%edi
  402b15:	e8 d6 e5 ff ff       	callq  4010f0 <close@plt>
  402b1a:	b8 ff ff ff ff       	mov    $0xffffffff,%eax
  402b1f:	e9 f8 00 00 00       	jmpq   402c1c <submitr+0x63e>
  402b24:	48 b8 45 72 72 6f 72 	movabs $0x43203a726f727245,%rax
  402b2b:	3a 20 43 
  402b2e:	48 ba 6c 69 65 6e 74 	movabs $0x6e7520746e65696c,%rdx
  402b35:	20 75 6e 
  402b38:	49 89 06             	mov    %rax,(%r14)
  402b3b:	49 89 56 08          	mov    %rdx,0x8(%r14)
  402b3f:	48 b8 61 62 6c 65 20 	movabs $0x206f7420656c6261,%rax
  402b46:	74 6f 20 
  402b49:	48 ba 72 65 61 64 20 	movabs $0x7269662064616572,%rdx
  402b50:	66 69 72 
  402b53:	49 89 46 10          	mov    %rax,0x10(%r14)
  402b57:	49 89 56 18          	mov    %rdx,0x18(%r14)
  402b5b:	48 b8 73 74 20 68 65 	movabs $0x6564616568207473,%rax
  402b62:	61 64 65 
  402b65:	48 ba 72 20 66 72 6f 	movabs $0x72206d6f72662072,%rdx
  402b6c:	6d 20 72 
  402b6f:	49 89 46 20          	mov    %rax,0x20(%r14)
  402b73:	49 89 56 28          	mov    %rdx,0x28(%r14)
  402b77:	48 b8 6d 20 72 65 73 	movabs $0x746c75736572206d,%rax
  402b7e:	75 6c 74 
  402b81:	48 ba 20 73 65 72 76 	movabs $0x72657672657320,%rdx
  402b88:	65 72 00 
  402b8b:	49 89 46 2d          	mov    %rax,0x2d(%r14)
  402b8f:	49 89 56 35          	mov    %rdx,0x35(%r14)
  402b93:	89 df                	mov    %ebx,%edi
  402b95:	e8 56 e5 ff ff       	callq  4010f0 <close@plt>
  402b9a:	b8 ff ff ff ff       	mov    $0xffffffff,%eax
  402b9f:	eb 7b                	jmp    402c1c <submitr+0x63e>
  402ba1:	48 b8 45 72 72 6f 72 	movabs $0x43203a726f727245,%rax
  402ba8:	3a 20 43 
  402bab:	48 ba 6c 69 65 6e 74 	movabs $0x6e7520746e65696c,%rdx
  402bb2:	20 75 6e 
  402bb5:	49 89 06             	mov    %rax,(%r14)
  402bb8:	49 89 56 08          	mov    %rdx,0x8(%r14)
  402bbc:	48 b8 61 62 6c 65 20 	movabs $0x206f7420656c6261,%rax
  402bc3:	74 6f 20 
  402bc6:	48 ba 72 65 61 64 20 	movabs $0x6165682064616572,%rdx
  402bcd:	68 65 61 
  402bd0:	49 89 46 10          	mov    %rax,0x10(%r14)
  402bd4:	49 89 56 18          	mov    %rdx,0x18(%r14)
  402bd8:	48 b8 64 65 72 73 20 	movabs $0x6f72662073726564,%rax
  402bdf:	66 72 6f 
  402be2:	48 ba 6d 20 74 68 65 	movabs $0x657220656874206d,%rdx
  402be9:	20 72 65 
  402bec:	49 89 46 20          	mov    %rax,0x20(%r14)
  402bf0:	49 89 56 28          	mov    %rdx,0x28(%r14)
  402bf4:	48 b8 65 20 72 65 73 	movabs $0x746c757365722065,%rax
  402bfb:	75 6c 74 
  402bfe:	48 ba 20 73 65 72 76 	movabs $0x72657672657320,%rdx
  402c05:	65 72 00 
  402c08:	49 89 46 2c          	mov    %rax,0x2c(%r14)
  402c0c:	49 89 56 34          	mov    %rdx,0x34(%r14)
  402c10:	89 df                	mov    %ebx,%edi
  402c12:	e8 d9 e4 ff ff       	callq  4010f0 <close@plt>
  402c17:	b8 ff ff ff ff       	mov    $0xffffffff,%eax
  402c1c:	48 81 c4 58 c0 00 00 	add    $0xc058,%rsp
  402c23:	5b                   	pop    %rbx
  402c24:	5d                   	pop    %rbp
  402c25:	41 5c                	pop    %r12
  402c27:	41 5d                	pop    %r13
  402c29:	41 5e                	pop    %r14
  402c2b:	41 5f                	pop    %r15
  402c2d:	c3                   	retq   
  402c2e:	48 8d b4 24 30 60 00 	lea    0x6030(%rsp),%rsi
  402c35:	00 
  402c36:	48 8d bc 24 30 a0 00 	lea    0xa030(%rsp),%rdi
  402c3d:	00 
  402c3e:	ba 00 20 00 00       	mov    $0x2000,%edx
  402c43:	e8 1a f9 ff ff       	callq  402562 <rio_readlineb>
  402c48:	48 85 c0             	test   %rax,%rax
  402c4b:	7e 2f                	jle    402c7c <submitr+0x69e>
  402c4d:	48 8d ac 24 30 60 00 	lea    0x6030(%rsp),%rbp
  402c54:	00 
  402c55:	48 8d bc 24 30 80 00 	lea    0x8030(%rsp),%rdi
  402c5c:	00 
  402c5d:	48 89 ee             	mov    %rbp,%rsi
  402c60:	e8 0b e4 ff ff       	callq  401070 <strcpy@plt>
  402c65:	48 89 ee             	mov    %rbp,%rsi
  402c68:	bf 81 47 40 00       	mov    $0x404781,%edi
  402c6d:	b8 00 00 00 00       	mov    $0x0,%eax
  402c72:	e8 49 e4 ff ff       	callq  4010c0 <printf@plt>
  402c77:	e9 97 00 00 00       	jmpq   402d13 <submitr+0x735>
  402c7c:	48 b8 45 72 72 6f 72 	movabs $0x43203a726f727245,%rax
  402c83:	3a 20 43 
  402c86:	48 ba 6c 69 65 6e 74 	movabs $0x6e7520746e65696c,%rdx
  402c8d:	20 75 6e 
  402c90:	49 89 06             	mov    %rax,(%r14)
  402c93:	49 89 56 08          	mov    %rdx,0x8(%r14)
  402c97:	48 b8 61 62 6c 65 20 	movabs $0x206f7420656c6261,%rax
  402c9e:	74 6f 20 
  402ca1:	48 ba 72 65 61 64 20 	movabs $0x6174732064616572,%rdx
  402ca8:	73 74 61 
  402cab:	49 89 46 10          	mov    %rax,0x10(%r14)
  402caf:	49 89 56 18          	mov    %rdx,0x18(%r14)
  402cb3:	48 b8 74 75 73 20 6d 	movabs $0x7373656d20737574,%rax
  402cba:	65 73 73 
  402cbd:	48 ba 61 67 65 20 66 	movabs $0x6d6f726620656761,%rdx
  402cc4:	72 6f 6d 
  402cc7:	49 89 46 20          	mov    %rax,0x20(%r14)
  402ccb:	49 89 56 28          	mov    %rdx,0x28(%r14)
  402ccf:	48 b8 6d 20 72 65 73 	movabs $0x746c75736572206d,%rax
  402cd6:	75 6c 74 
  402cd9:	48 ba 20 73 65 72 76 	movabs $0x72657672657320,%rdx
  402ce0:	65 72 00 
  402ce3:	49 89 46 2f          	mov    %rax,0x2f(%r14)
  402ce7:	49 89 56 37          	mov    %rdx,0x37(%r14)
  402ceb:	89 df                	mov    %ebx,%edi
  402ced:	e8 fe e3 ff ff       	callq  4010f0 <close@plt>
  402cf2:	b8 ff ff ff ff       	mov    $0xffffffff,%eax
  402cf7:	e9 20 ff ff ff       	jmpq   402c1c <submitr+0x63e>
  402cfc:	48 8d b4 24 30 60 00 	lea    0x6030(%rsp),%rsi
  402d03:	00 
  402d04:	bf 81 47 40 00       	mov    $0x404781,%edi
  402d09:	b8 00 00 00 00       	mov    $0x0,%eax
  402d0e:	e8 ad e3 ff ff       	callq  4010c0 <printf@plt>
  402d13:	48 8d b4 24 30 60 00 	lea    0x6030(%rsp),%rsi
  402d1a:	00 
  402d1b:	48 8d bc 24 30 a0 00 	lea    0xa030(%rsp),%rdi
  402d22:	00 
  402d23:	ba 00 20 00 00       	mov    $0x2000,%edx
  402d28:	e8 35 f8 ff ff       	callq  402562 <rio_readlineb>
  402d2d:	48 85 c0             	test   %rax,%rax
  402d30:	75 ca                	jne    402cfc <submitr+0x71e>
  402d32:	bf 93 47 40 00       	mov    $0x404793,%edi
  402d37:	e8 44 e3 ff ff       	callq  401080 <puts@plt>
  402d3c:	48 8d b4 24 30 80 00 	lea    0x8030(%rsp),%rsi
  402d43:	00 
  402d44:	48 8d bc 24 30 60 00 	lea    0x6030(%rsp),%rdi
  402d4b:	00 
  402d4c:	e8 1f e3 ff ff       	callq  401070 <strcpy@plt>
  402d51:	8b 94 24 2c 20 00 00 	mov    0x202c(%rsp),%edx
  402d58:	81 fa c8 00 00 00    	cmp    $0xc8,%edx
  402d5e:	75 6f                	jne    402dcf <submitr+0x7f1>
  402d60:	48 8d 74 24 20       	lea    0x20(%rsp),%rsi
  402d65:	4c 89 f7             	mov    %r14,%rdi
  402d68:	e8 03 e3 ff ff       	callq  401070 <strcpy@plt>
  402d6d:	89 df                	mov    %ebx,%edi
  402d6f:	e8 7c e3 ff ff       	callq  4010f0 <close@plt>
  402d74:	4c 89 f6             	mov    %r14,%rsi
  402d77:	bf ab 47 40 00       	mov    $0x4047ab,%edi
  402d7c:	b8 00 00 00 00       	mov    $0x0,%eax
  402d81:	e8 3a e3 ff ff       	callq  4010c0 <printf@plt>
  402d86:	be ba 47 40 00       	mov    $0x4047ba,%esi
  402d8b:	4c 89 f7             	mov    %r14,%rdi
  402d8e:	e8 7d e3 ff ff       	callq  401110 <strcmp@plt>
  402d93:	85 c0                	test   %eax,%eax
  402d95:	0f 84 81 fe ff ff    	je     402c1c <submitr+0x63e>
  402d9b:	be be 47 40 00       	mov    $0x4047be,%esi
  402da0:	4c 89 f7             	mov    %r14,%rdi
  402da3:	e8 68 e3 ff ff       	callq  401110 <strcmp@plt>
  402da8:	85 c0                	test   %eax,%eax
  402daa:	0f 84 6c fe ff ff    	je     402c1c <submitr+0x63e>
  402db0:	be c3 47 40 00       	mov    $0x4047c3,%esi
  402db5:	4c 89 f7             	mov    %r14,%rdi
  402db8:	e8 53 e3 ff ff       	callq  401110 <strcmp@plt>
  402dbd:	85 c0                	test   %eax,%eax
  402dbf:	0f 84 57 fe ff ff    	je     402c1c <submitr+0x63e>
  402dc5:	b8 ff ff ff ff       	mov    $0xffffffff,%eax
  402dca:	e9 4d fe ff ff       	jmpq   402c1c <submitr+0x63e>
  402dcf:	48 8d 4c 24 20       	lea    0x20(%rsp),%rcx
  402dd4:	be 98 44 40 00       	mov    $0x404498,%esi
  402dd9:	4c 89 f7             	mov    %r14,%rdi
  402ddc:	b8 00 00 00 00       	mov    $0x0,%eax
  402de1:	e8 1a e4 ff ff       	callq  401200 <sprintf@plt>
  402de6:	89 df                	mov    %ebx,%edi
  402de8:	e8 03 e3 ff ff       	callq  4010f0 <close@plt>
  402ded:	b8 ff ff ff ff       	mov    $0xffffffff,%eax
  402df2:	e9 25 fe ff ff       	jmpq   402c1c <submitr+0x63e>

0000000000402df7 <init_timeout>:
  402df7:	85 ff                	test   %edi,%edi
  402df9:	74 24                	je     402e1f <init_timeout+0x28>
  402dfb:	53                   	push   %rbx
  402dfc:	89 fb                	mov    %edi,%ebx
  402dfe:	78 18                	js     402e18 <init_timeout+0x21>
  402e00:	be 52 23 40 00       	mov    $0x402352,%esi
  402e05:	bf 0e 00 00 00       	mov    $0xe,%edi
  402e0a:	e8 11 e3 ff ff       	callq  401120 <signal@plt>
  402e0f:	89 df                	mov    %ebx,%edi
  402e11:	e8 ca e2 ff ff       	callq  4010e0 <alarm@plt>
  402e16:	5b                   	pop    %rbx
  402e17:	c3                   	retq   
  402e18:	bb 00 00 00 00       	mov    $0x0,%ebx
  402e1d:	eb e1                	jmp    402e00 <init_timeout+0x9>
  402e1f:	c3                   	retq   

0000000000402e20 <init_driver>:
  402e20:	41 54                	push   %r12
  402e22:	55                   	push   %rbp
  402e23:	53                   	push   %rbx
  402e24:	48 83 ec 10          	sub    $0x10,%rsp
  402e28:	48 89 fd             	mov    %rdi,%rbp
  402e2b:	be 01 00 00 00       	mov    $0x1,%esi
  402e30:	bf 0d 00 00 00       	mov    $0xd,%edi
  402e35:	e8 e6 e2 ff ff       	callq  401120 <signal@plt>
  402e3a:	be 01 00 00 00       	mov    $0x1,%esi
  402e3f:	bf 1d 00 00 00       	mov    $0x1d,%edi
  402e44:	e8 d7 e2 ff ff       	callq  401120 <signal@plt>
  402e49:	be 01 00 00 00       	mov    $0x1,%esi
  402e4e:	bf 1d 00 00 00       	mov    $0x1d,%edi
  402e53:	e8 c8 e2 ff ff       	callq  401120 <signal@plt>
  402e58:	ba 00 00 00 00       	mov    $0x0,%edx
  402e5d:	be 01 00 00 00       	mov    $0x1,%esi
  402e62:	bf 02 00 00 00       	mov    $0x2,%edi
  402e67:	e8 d4 e3 ff ff       	callq  401240 <socket@plt>
  402e6c:	85 c0                	test   %eax,%eax
  402e6e:	78 75                	js     402ee5 <init_driver+0xc5>
  402e70:	89 c3                	mov    %eax,%ebx
  402e72:	bf c6 47 40 00       	mov    $0x4047c6,%edi
  402e77:	e8 b4 e2 ff ff       	callq  401130 <gethostbyname@plt>
  402e7c:	48 85 c0             	test   %rax,%rax
  402e7f:	0f 84 ad 00 00 00    	je     402f32 <init_driver+0x112>
  402e85:	66 0f ef c0          	pxor   %xmm0,%xmm0
  402e89:	0f 29 04 24          	movaps %xmm0,(%rsp)
  402e8d:	66 c7 04 24 02 00    	movw   $0x2,(%rsp)
  402e93:	48 8b 48 18          	mov    0x18(%rax),%rcx
  402e97:	48 63 50 14          	movslq 0x14(%rax),%rdx
  402e9b:	48 8b 31             	mov    (%rcx),%rsi
  402e9e:	48 8d 7c 24 04       	lea    0x4(%rsp),%rdi
  402ea3:	e8 08 e3 ff ff       	callq  4011b0 <memmove@plt>
  402ea8:	66 c7 44 24 02 1f 54 	movw   $0x541f,0x2(%rsp)
  402eaf:	ba 10 00 00 00       	mov    $0x10,%edx
  402eb4:	48 89 e6             	mov    %rsp,%rsi
  402eb7:	89 df                	mov    %ebx,%edi
  402eb9:	e8 62 e3 ff ff       	callq  401220 <connect@plt>
  402ebe:	85 c0                	test   %eax,%eax
  402ec0:	0f 88 d1 00 00 00    	js     402f97 <init_driver+0x177>
  402ec6:	89 df                	mov    %ebx,%edi
  402ec8:	e8 23 e2 ff ff       	callq  4010f0 <close@plt>
  402ecd:	66 c7 45 00 4f 4b    	movw   $0x4b4f,0x0(%rbp)
  402ed3:	c6 45 02 00          	movb   $0x0,0x2(%rbp)
  402ed7:	b8 00 00 00 00       	mov    $0x0,%eax
  402edc:	48 83 c4 10          	add    $0x10,%rsp
  402ee0:	5b                   	pop    %rbx
  402ee1:	5d                   	pop    %rbp
  402ee2:	41 5c                	pop    %r12
  402ee4:	c3                   	retq   
  402ee5:	48 b8 45 72 72 6f 72 	movabs $0x43203a726f727245,%rax
  402eec:	3a 20 43 
  402eef:	48 ba 6c 69 65 6e 74 	movabs $0x6e7520746e65696c,%rdx
  402ef6:	20 75 6e 
  402ef9:	48 89 45 00          	mov    %rax,0x0(%rbp)
  402efd:	48 89 55 08          	mov    %rdx,0x8(%rbp)
  402f01:	48 b8 61 62 6c 65 20 	movabs $0x206f7420656c6261,%rax
  402f08:	74 6f 20 
  402f0b:	48 ba 63 72 65 61 74 	movabs $0x7320657461657263,%rdx
  402f12:	65 20 73 
  402f15:	48 89 45 10          	mov    %rax,0x10(%rbp)
  402f19:	48 89 55 18          	mov    %rdx,0x18(%rbp)
  402f1d:	48 b8 20 73 6f 63 6b 	movabs $0x74656b636f7320,%rax
  402f24:	65 74 00 
  402f27:	48 89 45 1e          	mov    %rax,0x1e(%rbp)
  402f2b:	b8 ff ff ff ff       	mov    $0xffffffff,%eax
  402f30:	eb aa                	jmp    402edc <init_driver+0xbc>
  402f32:	48 b8 45 72 72 6f 72 	movabs $0x44203a726f727245,%rax
  402f39:	3a 20 44 
  402f3c:	48 ba 4e 53 20 69 73 	movabs $0x6e7520736920534e,%rdx
  402f43:	20 75 6e 
  402f46:	48 89 45 00          	mov    %rax,0x0(%rbp)
  402f4a:	48 89 55 08          	mov    %rdx,0x8(%rbp)
  402f4e:	48 b8 61 62 6c 65 20 	movabs $0x206f7420656c6261,%rax
  402f55:	74 6f 20 
  402f58:	48 ba 72 65 73 6f 6c 	movabs $0x2065766c6f736572,%rdx
  402f5f:	76 65 20 
  402f62:	48 89 45 10          	mov    %rax,0x10(%rbp)
  402f66:	48 89 55 18          	mov    %rdx,0x18(%rbp)
  402f6a:	48 b8 20 73 65 72 76 	movabs $0x2072657672657320,%rax
  402f71:	65 72 20 
  402f74:	48 ba 61 64 64 72 65 	movabs $0x73736572646461,%rdx
  402f7b:	73 73 00 
  402f7e:	48 89 45 1f          	mov    %rax,0x1f(%rbp)
  402f82:	48 89 55 27          	mov    %rdx,0x27(%rbp)
  402f86:	89 df                	mov    %ebx,%edi
  402f88:	e8 63 e1 ff ff       	callq  4010f0 <close@plt>
  402f8d:	b8 ff ff ff ff       	mov    $0xffffffff,%eax
  402f92:	e9 45 ff ff ff       	jmpq   402edc <init_driver+0xbc>
  402f97:	48 b8 31 30 2e 30 2e 	movabs $0x3831312e302e3031,%rax
  402f9e:	31 31 38 
  402fa1:	48 89 45 00          	mov    %rax,0x0(%rbp)
  402fa5:	48 b8 31 31 38 2e 31 	movabs $0x3430312e383131,%rax
  402fac:	30 34 00 
  402faf:	48 89 45 05          	mov    %rax,0x5(%rbp)
  402fb3:	48 b8 45 72 72 6f 72 	movabs $0x55203a726f727245,%rax
  402fba:	3a 20 55 
  402fbd:	48 ba 6e 61 62 6c 65 	movabs $0x6f7420656c62616e,%rdx
  402fc4:	20 74 6f 
  402fc7:	48 89 45 00          	mov    %rax,0x0(%rbp)
  402fcb:	48 89 55 08          	mov    %rdx,0x8(%rbp)
  402fcf:	48 b8 20 63 6f 6e 6e 	movabs $0x7463656e6e6f6320,%rax
  402fd6:	65 63 74 
  402fd9:	48 ba 20 74 6f 20 73 	movabs $0x76726573206f7420,%rdx
  402fe0:	65 72 76 
  402fe3:	48 89 45 10          	mov    %rax,0x10(%rbp)
  402fe7:	48 89 55 18          	mov    %rdx,0x18(%rbp)
  402feb:	c7 45 1f 76 65 72 00 	movl   $0x726576,0x1f(%rbp)
  402ff2:	89 df                	mov    %ebx,%edi
  402ff4:	e8 f7 e0 ff ff       	callq  4010f0 <close@plt>
  402ff9:	b8 ff ff ff ff       	mov    $0xffffffff,%eax
  402ffe:	e9 d9 fe ff ff       	jmpq   402edc <init_driver+0xbc>

0000000000403003 <driver_post>:
  403003:	53                   	push   %rbx
  403004:	4c 89 cb             	mov    %r9,%rbx
  403007:	45 85 c0             	test   %r8d,%r8d
  40300a:	75 18                	jne    403024 <driver_post+0x21>
  40300c:	48 85 ff             	test   %rdi,%rdi
  40300f:	74 05                	je     403016 <driver_post+0x13>
  403011:	80 3f 00             	cmpb   $0x0,(%rdi)
  403014:	75 30                	jne    403046 <driver_post+0x43>
  403016:	66 c7 03 4f 4b       	movw   $0x4b4f,(%rbx)
  40301b:	c6 43 02 00          	movb   $0x0,0x2(%rbx)
  40301f:	44 89 c0             	mov    %r8d,%eax
  403022:	5b                   	pop    %rbx
  403023:	c3                   	retq   
  403024:	48 89 ce             	mov    %rcx,%rsi
  403027:	bf d3 47 40 00       	mov    $0x4047d3,%edi
  40302c:	b8 00 00 00 00       	mov    $0x0,%eax
  403031:	e8 8a e0 ff ff       	callq  4010c0 <printf@plt>
  403036:	66 c7 03 4f 4b       	movw   $0x4b4f,(%rbx)
  40303b:	c6 43 02 00          	movb   $0x0,0x2(%rbx)
  40303f:	b8 00 00 00 00       	mov    $0x0,%eax
  403044:	eb dc                	jmp    403022 <driver_post+0x1f>
  403046:	48 83 ec 08          	sub    $0x8,%rsp
  40304a:	41 51                	push   %r9
  40304c:	49 89 c9             	mov    %rcx,%r9
  40304f:	49 89 d0             	mov    %rdx,%r8
  403052:	48 89 f9             	mov    %rdi,%rcx
  403055:	48 89 f2             	mov    %rsi,%rdx
  403058:	be 54 1f 00 00       	mov    $0x1f54,%esi
  40305d:	bf c6 47 40 00       	mov    $0x4047c6,%edi
  403062:	e8 77 f5 ff ff       	callq  4025de <submitr>
  403067:	48 83 c4 10          	add    $0x10,%rsp
  40306b:	eb b5                	jmp    403022 <driver_post+0x1f>

000000000040306d <check>:
  40306d:	89 f8                	mov    %edi,%eax
  40306f:	c1 e8 1c             	shr    $0x1c,%eax
  403072:	74 1d                	je     403091 <check+0x24>
  403074:	b9 00 00 00 00       	mov    $0x0,%ecx
  403079:	83 f9 1f             	cmp    $0x1f,%ecx
  40307c:	7f 0d                	jg     40308b <check+0x1e>
  40307e:	89 f8                	mov    %edi,%eax
  403080:	d3 e8                	shr    %cl,%eax
  403082:	3c 0a                	cmp    $0xa,%al
  403084:	74 11                	je     403097 <check+0x2a>
  403086:	83 c1 08             	add    $0x8,%ecx
  403089:	eb ee                	jmp    403079 <check+0xc>
  40308b:	b8 01 00 00 00       	mov    $0x1,%eax
  403090:	c3                   	retq   
  403091:	b8 00 00 00 00       	mov    $0x0,%eax
  403096:	c3                   	retq   
  403097:	b8 00 00 00 00       	mov    $0x0,%eax
  40309c:	c3                   	retq   

000000000040309d <gencookie>:
  40309d:	53                   	push   %rbx
  40309e:	83 c7 01             	add    $0x1,%edi
  4030a1:	e8 aa df ff ff       	callq  401050 <srandom@plt>
  4030a6:	e8 d5 e0 ff ff       	callq  401180 <random@plt>
  4030ab:	89 c3                	mov    %eax,%ebx
  4030ad:	89 c7                	mov    %eax,%edi
  4030af:	e8 b9 ff ff ff       	callq  40306d <check>
  4030b4:	85 c0                	test   %eax,%eax
  4030b6:	74 ee                	je     4030a6 <gencookie+0x9>
  4030b8:	89 d8                	mov    %ebx,%eax
  4030ba:	5b                   	pop    %rbx
  4030bb:	c3                   	retq   

Disassembly of section .fini:

00000000004030bc <_fini>:
  4030bc:	f3 0f 1e fa          	endbr64 
  4030c0:	48 83 ec 08          	sub    $0x8,%rsp
  4030c4:	48 83 c4 08          	add    $0x8,%rsp
  4030c8:	c3                   	retq   
