
rtarget:     file format elf64-x86-64


Disassembly of section .init:

0000000000401000 <_init>:
  401000:	f3 0f 1e fa          	endbr64 
  401004:	48 83 ec 08          	sub    $0x8,%rsp
  401008:	48 8b 05 d1 5f 00 00 	mov    0x5fd1(%rip),%rax        # 406fe0 <__gmon_start__@Base>
  40100f:	48 85 c0             	test   %rax,%rax
  401012:	74 02                	je     401016 <_init+0x16>
  401014:	ff d0                	callq  *%rax
  401016:	48 83 c4 08          	add    $0x8,%rsp
  40101a:	c3                   	retq   

Disassembly of section .plt:

0000000000401020 <strcasecmp@plt-0x10>:
  401020:	ff 35 ca 5f 00 00    	pushq  0x5fca(%rip)        # 406ff0 <_GLOBAL_OFFSET_TABLE_+0x8>
  401026:	ff 25 cc 5f 00 00    	jmpq   *0x5fcc(%rip)        # 406ff8 <_GLOBAL_OFFSET_TABLE_+0x10>
  40102c:	0f 1f 40 00          	nopl   0x0(%rax)

0000000000401030 <strcasecmp@plt>:
  401030:	ff 25 ca 5f 00 00    	jmpq   *0x5fca(%rip)        # 407000 <strcasecmp@GLIBC_2.2.5>
  401036:	68 00 00 00 00       	pushq  $0x0
  40103b:	e9 e0 ff ff ff       	jmpq   401020 <_init+0x20>

0000000000401040 <__errno_location@plt>:
  401040:	ff 25 c2 5f 00 00    	jmpq   *0x5fc2(%rip)        # 407008 <__errno_location@GLIBC_2.2.5>
  401046:	68 01 00 00 00       	pushq  $0x1
  40104b:	e9 d0 ff ff ff       	jmpq   401020 <_init+0x20>

0000000000401050 <srandom@plt>:
  401050:	ff 25 ba 5f 00 00    	jmpq   *0x5fba(%rip)        # 407010 <srandom@GLIBC_2.2.5>
  401056:	68 02 00 00 00       	pushq  $0x2
  40105b:	e9 c0 ff ff ff       	jmpq   401020 <_init+0x20>

0000000000401060 <strncmp@plt>:
  401060:	ff 25 b2 5f 00 00    	jmpq   *0x5fb2(%rip)        # 407018 <strncmp@GLIBC_2.2.5>
  401066:	68 03 00 00 00       	pushq  $0x3
  40106b:	e9 b0 ff ff ff       	jmpq   401020 <_init+0x20>

0000000000401070 <strcpy@plt>:
  401070:	ff 25 aa 5f 00 00    	jmpq   *0x5faa(%rip)        # 407020 <strcpy@GLIBC_2.2.5>
  401076:	68 04 00 00 00       	pushq  $0x4
  40107b:	e9 a0 ff ff ff       	jmpq   401020 <_init+0x20>

0000000000401080 <puts@plt>:
  401080:	ff 25 a2 5f 00 00    	jmpq   *0x5fa2(%rip)        # 407028 <puts@GLIBC_2.2.5>
  401086:	68 05 00 00 00       	pushq  $0x5
  40108b:	e9 90 ff ff ff       	jmpq   401020 <_init+0x20>

0000000000401090 <write@plt>:
  401090:	ff 25 9a 5f 00 00    	jmpq   *0x5f9a(%rip)        # 407030 <write@GLIBC_2.2.5>
  401096:	68 06 00 00 00       	pushq  $0x6
  40109b:	e9 80 ff ff ff       	jmpq   401020 <_init+0x20>

00000000004010a0 <strlen@plt>:
  4010a0:	ff 25 92 5f 00 00    	jmpq   *0x5f92(%rip)        # 407038 <strlen@GLIBC_2.2.5>
  4010a6:	68 07 00 00 00       	pushq  $0x7
  4010ab:	e9 70 ff ff ff       	jmpq   401020 <_init+0x20>

00000000004010b0 <mmap@plt>:
  4010b0:	ff 25 8a 5f 00 00    	jmpq   *0x5f8a(%rip)        # 407040 <mmap@GLIBC_2.2.5>
  4010b6:	68 08 00 00 00       	pushq  $0x8
  4010bb:	e9 60 ff ff ff       	jmpq   401020 <_init+0x20>

00000000004010c0 <printf@plt>:
  4010c0:	ff 25 82 5f 00 00    	jmpq   *0x5f82(%rip)        # 407048 <printf@GLIBC_2.2.5>
  4010c6:	68 09 00 00 00       	pushq  $0x9
  4010cb:	e9 50 ff ff ff       	jmpq   401020 <_init+0x20>

00000000004010d0 <memset@plt>:
  4010d0:	ff 25 7a 5f 00 00    	jmpq   *0x5f7a(%rip)        # 407050 <memset@GLIBC_2.2.5>
  4010d6:	68 0a 00 00 00       	pushq  $0xa
  4010db:	e9 40 ff ff ff       	jmpq   401020 <_init+0x20>

00000000004010e0 <alarm@plt>:
  4010e0:	ff 25 72 5f 00 00    	jmpq   *0x5f72(%rip)        # 407058 <alarm@GLIBC_2.2.5>
  4010e6:	68 0b 00 00 00       	pushq  $0xb
  4010eb:	e9 30 ff ff ff       	jmpq   401020 <_init+0x20>

00000000004010f0 <close@plt>:
  4010f0:	ff 25 6a 5f 00 00    	jmpq   *0x5f6a(%rip)        # 407060 <close@GLIBC_2.2.5>
  4010f6:	68 0c 00 00 00       	pushq  $0xc
  4010fb:	e9 20 ff ff ff       	jmpq   401020 <_init+0x20>

0000000000401100 <read@plt>:
  401100:	ff 25 62 5f 00 00    	jmpq   *0x5f62(%rip)        # 407068 <read@GLIBC_2.2.5>
  401106:	68 0d 00 00 00       	pushq  $0xd
  40110b:	e9 10 ff ff ff       	jmpq   401020 <_init+0x20>

0000000000401110 <strcmp@plt>:
  401110:	ff 25 5a 5f 00 00    	jmpq   *0x5f5a(%rip)        # 407070 <strcmp@GLIBC_2.2.5>
  401116:	68 0e 00 00 00       	pushq  $0xe
  40111b:	e9 00 ff ff ff       	jmpq   401020 <_init+0x20>

0000000000401120 <signal@plt>:
  401120:	ff 25 52 5f 00 00    	jmpq   *0x5f52(%rip)        # 407078 <signal@GLIBC_2.2.5>
  401126:	68 0f 00 00 00       	pushq  $0xf
  40112b:	e9 f0 fe ff ff       	jmpq   401020 <_init+0x20>

0000000000401130 <gethostbyname@plt>:
  401130:	ff 25 4a 5f 00 00    	jmpq   *0x5f4a(%rip)        # 407080 <gethostbyname@GLIBC_2.2.5>
  401136:	68 10 00 00 00       	pushq  $0x10
  40113b:	e9 e0 fe ff ff       	jmpq   401020 <_init+0x20>

0000000000401140 <fprintf@plt>:
  401140:	ff 25 42 5f 00 00    	jmpq   *0x5f42(%rip)        # 407088 <fprintf@GLIBC_2.2.5>
  401146:	68 11 00 00 00       	pushq  $0x11
  40114b:	e9 d0 fe ff ff       	jmpq   401020 <_init+0x20>

0000000000401150 <strtol@plt>:
  401150:	ff 25 3a 5f 00 00    	jmpq   *0x5f3a(%rip)        # 407090 <strtol@GLIBC_2.2.5>
  401156:	68 12 00 00 00       	pushq  $0x12
  40115b:	e9 c0 fe ff ff       	jmpq   401020 <_init+0x20>

0000000000401160 <memcpy@plt>:
  401160:	ff 25 32 5f 00 00    	jmpq   *0x5f32(%rip)        # 407098 <memcpy@GLIBC_2.14>
  401166:	68 13 00 00 00       	pushq  $0x13
  40116b:	e9 b0 fe ff ff       	jmpq   401020 <_init+0x20>

0000000000401170 <time@plt>:
  401170:	ff 25 2a 5f 00 00    	jmpq   *0x5f2a(%rip)        # 4070a0 <time@GLIBC_2.2.5>
  401176:	68 14 00 00 00       	pushq  $0x14
  40117b:	e9 a0 fe ff ff       	jmpq   401020 <_init+0x20>

0000000000401180 <random@plt>:
  401180:	ff 25 22 5f 00 00    	jmpq   *0x5f22(%rip)        # 4070a8 <random@GLIBC_2.2.5>
  401186:	68 15 00 00 00       	pushq  $0x15
  40118b:	e9 90 fe ff ff       	jmpq   401020 <_init+0x20>

0000000000401190 <__isoc99_sscanf@plt>:
  401190:	ff 25 1a 5f 00 00    	jmpq   *0x5f1a(%rip)        # 4070b0 <__isoc99_sscanf@GLIBC_2.7>
  401196:	68 16 00 00 00       	pushq  $0x16
  40119b:	e9 80 fe ff ff       	jmpq   401020 <_init+0x20>

00000000004011a0 <munmap@plt>:
  4011a0:	ff 25 12 5f 00 00    	jmpq   *0x5f12(%rip)        # 4070b8 <munmap@GLIBC_2.2.5>
  4011a6:	68 17 00 00 00       	pushq  $0x17
  4011ab:	e9 70 fe ff ff       	jmpq   401020 <_init+0x20>

00000000004011b0 <memmove@plt>:
  4011b0:	ff 25 0a 5f 00 00    	jmpq   *0x5f0a(%rip)        # 4070c0 <memmove@GLIBC_2.2.5>
  4011b6:	68 18 00 00 00       	pushq  $0x18
  4011bb:	e9 60 fe ff ff       	jmpq   401020 <_init+0x20>

00000000004011c0 <fopen@plt>:
  4011c0:	ff 25 02 5f 00 00    	jmpq   *0x5f02(%rip)        # 4070c8 <fopen@GLIBC_2.2.5>
  4011c6:	68 19 00 00 00       	pushq  $0x19
  4011cb:	e9 50 fe ff ff       	jmpq   401020 <_init+0x20>

00000000004011d0 <getopt@plt>:
  4011d0:	ff 25 fa 5e 00 00    	jmpq   *0x5efa(%rip)        # 4070d0 <getopt@GLIBC_2.2.5>
  4011d6:	68 1a 00 00 00       	pushq  $0x1a
  4011db:	e9 40 fe ff ff       	jmpq   401020 <_init+0x20>

00000000004011e0 <strtoul@plt>:
  4011e0:	ff 25 f2 5e 00 00    	jmpq   *0x5ef2(%rip)        # 4070d8 <strtoul@GLIBC_2.2.5>
  4011e6:	68 1b 00 00 00       	pushq  $0x1b
  4011eb:	e9 30 fe ff ff       	jmpq   401020 <_init+0x20>

00000000004011f0 <gethostname@plt>:
  4011f0:	ff 25 ea 5e 00 00    	jmpq   *0x5eea(%rip)        # 4070e0 <gethostname@GLIBC_2.2.5>
  4011f6:	68 1c 00 00 00       	pushq  $0x1c
  4011fb:	e9 20 fe ff ff       	jmpq   401020 <_init+0x20>

0000000000401200 <sprintf@plt>:
  401200:	ff 25 e2 5e 00 00    	jmpq   *0x5ee2(%rip)        # 4070e8 <sprintf@GLIBC_2.2.5>
  401206:	68 1d 00 00 00       	pushq  $0x1d
  40120b:	e9 10 fe ff ff       	jmpq   401020 <_init+0x20>

0000000000401210 <exit@plt>:
  401210:	ff 25 da 5e 00 00    	jmpq   *0x5eda(%rip)        # 4070f0 <exit@GLIBC_2.2.5>
  401216:	68 1e 00 00 00       	pushq  $0x1e
  40121b:	e9 00 fe ff ff       	jmpq   401020 <_init+0x20>

0000000000401220 <connect@plt>:
  401220:	ff 25 d2 5e 00 00    	jmpq   *0x5ed2(%rip)        # 4070f8 <connect@GLIBC_2.2.5>
  401226:	68 1f 00 00 00       	pushq  $0x1f
  40122b:	e9 f0 fd ff ff       	jmpq   401020 <_init+0x20>

0000000000401230 <getc@plt>:
  401230:	ff 25 ca 5e 00 00    	jmpq   *0x5eca(%rip)        # 407100 <getc@GLIBC_2.2.5>
  401236:	68 20 00 00 00       	pushq  $0x20
  40123b:	e9 e0 fd ff ff       	jmpq   401020 <_init+0x20>

0000000000401240 <socket@plt>:
  401240:	ff 25 c2 5e 00 00    	jmpq   *0x5ec2(%rip)        # 407108 <socket@GLIBC_2.2.5>
  401246:	68 21 00 00 00       	pushq  $0x21
  40124b:	e9 d0 fd ff ff       	jmpq   401020 <_init+0x20>

Disassembly of section .text:

0000000000401280 <_start>:
  401280:	f3 0f 1e fa          	endbr64 
  401284:	31 ed                	xor    %ebp,%ebp
  401286:	49 89 d1             	mov    %rdx,%r9
  401289:	5e                   	pop    %rsi
  40128a:	48 89 e2             	mov    %rsp,%rdx
  40128d:	48 83 e4 f0          	and    $0xfffffffffffffff0,%rsp
  401291:	50                   	push   %rax
  401292:	54                   	push   %rsp
  401293:	45 31 c0             	xor    %r8d,%r8d
  401296:	31 c9                	xor    %ecx,%ecx
  401298:	48 c7 c7 04 15 40 00 	mov    $0x401504,%rdi
  40129f:	ff 15 33 5d 00 00    	callq  *0x5d33(%rip)        # 406fd8 <__libc_start_main@GLIBC_2.34>
  4012a5:	f4                   	hlt    
  4012a6:	66 2e 0f 1f 84 00 00 	nopw   %cs:0x0(%rax,%rax,1)
  4012ad:	00 00 00 

00000000004012b0 <_dl_relocate_static_pie>:
  4012b0:	f3 0f 1e fa          	endbr64 
  4012b4:	c3                   	retq   
  4012b5:	66 2e 0f 1f 84 00 00 	nopw   %cs:0x0(%rax,%rax,1)
  4012bc:	00 00 00 
  4012bf:	90                   	nop

00000000004012c0 <deregister_tm_clones>:
  4012c0:	b8 98 74 40 00       	mov    $0x407498,%eax
  4012c5:	48 3d 98 74 40 00    	cmp    $0x407498,%rax
  4012cb:	74 13                	je     4012e0 <deregister_tm_clones+0x20>
  4012cd:	b8 00 00 00 00       	mov    $0x0,%eax
  4012d2:	48 85 c0             	test   %rax,%rax
  4012d5:	74 09                	je     4012e0 <deregister_tm_clones+0x20>
  4012d7:	bf 98 74 40 00       	mov    $0x407498,%edi
  4012dc:	ff e0                	jmpq   *%rax
  4012de:	66 90                	xchg   %ax,%ax
  4012e0:	c3                   	retq   
  4012e1:	66 66 2e 0f 1f 84 00 	data16 nopw %cs:0x0(%rax,%rax,1)
  4012e8:	00 00 00 00 
  4012ec:	0f 1f 40 00          	nopl   0x0(%rax)

00000000004012f0 <register_tm_clones>:
  4012f0:	be 98 74 40 00       	mov    $0x407498,%esi
  4012f5:	48 81 ee 98 74 40 00 	sub    $0x407498,%rsi
  4012fc:	48 89 f0             	mov    %rsi,%rax
  4012ff:	48 c1 ee 3f          	shr    $0x3f,%rsi
  401303:	48 c1 f8 03          	sar    $0x3,%rax
  401307:	48 01 c6             	add    %rax,%rsi
  40130a:	48 d1 fe             	sar    %rsi
  40130d:	74 11                	je     401320 <register_tm_clones+0x30>
  40130f:	b8 00 00 00 00       	mov    $0x0,%eax
  401314:	48 85 c0             	test   %rax,%rax
  401317:	74 07                	je     401320 <register_tm_clones+0x30>
  401319:	bf 98 74 40 00       	mov    $0x407498,%edi
  40131e:	ff e0                	jmpq   *%rax
  401320:	c3                   	retq   
  401321:	66 66 2e 0f 1f 84 00 	data16 nopw %cs:0x0(%rax,%rax,1)
  401328:	00 00 00 00 
  40132c:	0f 1f 40 00          	nopl   0x0(%rax)

0000000000401330 <__do_global_dtors_aux>:
  401330:	f3 0f 1e fa          	endbr64 
  401334:	80 3d ad 61 00 00 00 	cmpb   $0x0,0x61ad(%rip)        # 4074e8 <completed.0>
  40133b:	75 13                	jne    401350 <__do_global_dtors_aux+0x20>
  40133d:	55                   	push   %rbp
  40133e:	48 89 e5             	mov    %rsp,%rbp
  401341:	e8 7a ff ff ff       	callq  4012c0 <deregister_tm_clones>
  401346:	c6 05 9b 61 00 00 01 	movb   $0x1,0x619b(%rip)        # 4074e8 <completed.0>
  40134d:	5d                   	pop    %rbp
  40134e:	c3                   	retq   
  40134f:	90                   	nop
  401350:	c3                   	retq   
  401351:	66 66 2e 0f 1f 84 00 	data16 nopw %cs:0x0(%rax,%rax,1)
  401358:	00 00 00 00 
  40135c:	0f 1f 40 00          	nopl   0x0(%rax)

0000000000401360 <frame_dummy>:
  401360:	f3 0f 1e fa          	endbr64 
  401364:	eb 8a                	jmp    4012f0 <register_tm_clones>

0000000000401366 <usage>:
  401366:	48 83 ec 08          	sub    $0x8,%rsp
  40136a:	48 89 fe             	mov    %rdi,%rsi
  40136d:	83 3d bc 61 00 00 00 	cmpl   $0x0,0x61bc(%rip)        # 407530 <is_checker>
  401374:	74 41                	je     4013b7 <usage+0x51>
  401376:	bf 10 40 40 00       	mov    $0x404010,%edi
  40137b:	b8 00 00 00 00       	mov    $0x0,%eax
  401380:	e8 3b fd ff ff       	callq  4010c0 <printf@plt>
  401385:	bf 48 40 40 00       	mov    $0x404048,%edi
  40138a:	e8 f1 fc ff ff       	callq  401080 <puts@plt>
  40138f:	bf c5 44 40 00       	mov    $0x4044c5,%edi
  401394:	e8 e7 fc ff ff       	callq  401080 <puts@plt>
  401399:	bf 70 40 40 00       	mov    $0x404070,%edi
  40139e:	e8 dd fc ff ff       	callq  401080 <puts@plt>
  4013a3:	bf df 44 40 00       	mov    $0x4044df,%edi
  4013a8:	e8 d3 fc ff ff       	callq  401080 <puts@plt>
  4013ad:	bf 00 00 00 00       	mov    $0x0,%edi
  4013b2:	e8 59 fe ff ff       	callq  401210 <exit@plt>
  4013b7:	bf fb 44 40 00       	mov    $0x4044fb,%edi
  4013bc:	b8 00 00 00 00       	mov    $0x0,%eax
  4013c1:	e8 fa fc ff ff       	callq  4010c0 <printf@plt>
  4013c6:	bf 98 40 40 00       	mov    $0x404098,%edi
  4013cb:	e8 b0 fc ff ff       	callq  401080 <puts@plt>
  4013d0:	bf c0 40 40 00       	mov    $0x4040c0,%edi
  4013d5:	e8 a6 fc ff ff       	callq  401080 <puts@plt>
  4013da:	bf 19 45 40 00       	mov    $0x404519,%edi
  4013df:	e8 9c fc ff ff       	callq  401080 <puts@plt>
  4013e4:	eb c7                	jmp    4013ad <usage+0x47>

00000000004013e6 <initialize_target>:
  4013e6:	55                   	push   %rbp
  4013e7:	53                   	push   %rbx
  4013e8:	48 81 ec 08 21 00 00 	sub    $0x2108,%rsp
  4013ef:	89 f5                	mov    %esi,%ebp
  4013f1:	89 3d 29 61 00 00    	mov    %edi,0x6129(%rip)        # 407520 <check_level>
  4013f7:	8b 3d 4b 5d 00 00    	mov    0x5d4b(%rip),%edi        # 407148 <target_id>
  4013fd:	e8 9b 1d 00 00       	callq  40319d <gencookie>
  401402:	89 c7                	mov    %eax,%edi
  401404:	89 05 22 61 00 00    	mov    %eax,0x6122(%rip)        # 40752c <cookie>
  40140a:	e8 8e 1d 00 00       	callq  40319d <gencookie>
  40140f:	89 05 13 61 00 00    	mov    %eax,0x6113(%rip)        # 407528 <authkey>
  401415:	8b 05 2d 5d 00 00    	mov    0x5d2d(%rip),%eax        # 407148 <target_id>
  40141b:	8d 78 01             	lea    0x1(%rax),%edi
  40141e:	e8 2d fc ff ff       	callq  401050 <srandom@plt>
  401423:	e8 58 fd ff ff       	callq  401180 <random@plt>
  401428:	89 c7                	mov    %eax,%edi
  40142a:	e8 b1 02 00 00       	callq  4016e0 <scramble>
  40142f:	89 c3                	mov    %eax,%ebx
  401431:	85 ed                	test   %ebp,%ebp
  401433:	75 3d                	jne    401472 <initialize_target+0x8c>
  401435:	b8 00 00 00 00       	mov    $0x0,%eax
  40143a:	01 d8                	add    %ebx,%eax
  40143c:	0f b7 c0             	movzwl %ax,%eax
  40143f:	8d 04 c5 00 01 00 00 	lea    0x100(,%rax,8),%eax
  401446:	89 c0                	mov    %eax,%eax
  401448:	48 89 05 41 60 00 00 	mov    %rax,0x6041(%rip)        # 407490 <buf_offset>
  40144f:	c6 05 36 60 00 00 72 	movb   $0x72,0x6036(%rip)        # 40748c <target_prefix>
  401456:	83 3d 2b 60 00 00 00 	cmpl   $0x0,0x602b(%rip)        # 407488 <notify>
  40145d:	74 09                	je     401468 <initialize_target+0x82>
  40145f:	83 3d ca 60 00 00 00 	cmpl   $0x0,0x60ca(%rip)        # 407530 <is_checker>
  401466:	74 22                	je     40148a <initialize_target+0xa4>
  401468:	48 81 c4 08 21 00 00 	add    $0x2108,%rsp
  40146f:	5b                   	pop    %rbx
  401470:	5d                   	pop    %rbp
  401471:	c3                   	retq   
  401472:	bf 00 00 00 00       	mov    $0x0,%edi
  401477:	e8 f4 fc ff ff       	callq  401170 <time@plt>
  40147c:	89 c7                	mov    %eax,%edi
  40147e:	e8 cd fb ff ff       	callq  401050 <srandom@plt>
  401483:	e8 f8 fc ff ff       	callq  401180 <random@plt>
  401488:	eb b0                	jmp    40143a <initialize_target+0x54>
  40148a:	48 89 e7             	mov    %rsp,%rdi
  40148d:	be 00 01 00 00       	mov    $0x100,%esi
  401492:	e8 59 fd ff ff       	callq  4011f0 <gethostname@plt>
  401497:	89 c3                	mov    %eax,%ebx
  401499:	85 c0                	test   %eax,%eax
  40149b:	75 21                	jne    4014be <initialize_target+0xd8>
  40149d:	48 63 c3             	movslq %ebx,%rax
  4014a0:	48 8b 3c c5 60 71 40 	mov    0x407160(,%rax,8),%rdi
  4014a7:	00 
  4014a8:	48 85 ff             	test   %rdi,%rdi
  4014ab:	74 25                	je     4014d2 <initialize_target+0xec>
  4014ad:	48 89 e6             	mov    %rsp,%rsi
  4014b0:	e8 7b fb ff ff       	callq  401030 <strcasecmp@plt>
  4014b5:	85 c0                	test   %eax,%eax
  4014b7:	74 19                	je     4014d2 <initialize_target+0xec>
  4014b9:	83 c3 01             	add    $0x1,%ebx
  4014bc:	eb df                	jmp    40149d <initialize_target+0xb7>
  4014be:	bf f0 40 40 00       	mov    $0x4040f0,%edi
  4014c3:	e8 b8 fb ff ff       	callq  401080 <puts@plt>
  4014c8:	bf 08 00 00 00       	mov    $0x8,%edi
  4014cd:	e8 3e fd ff ff       	callq  401210 <exit@plt>
  4014d2:	48 8d bc 24 00 01 00 	lea    0x100(%rsp),%rdi
  4014d9:	00 
  4014da:	e8 41 1a 00 00       	callq  402f20 <init_driver>
  4014df:	85 c0                	test   %eax,%eax
  4014e1:	79 85                	jns    401468 <initialize_target+0x82>
  4014e3:	48 8d b4 24 00 01 00 	lea    0x100(%rsp),%rsi
  4014ea:	00 
  4014eb:	bf 28 41 40 00       	mov    $0x404128,%edi
  4014f0:	b8 00 00 00 00       	mov    $0x0,%eax
  4014f5:	e8 c6 fb ff ff       	callq  4010c0 <printf@plt>
  4014fa:	bf 08 00 00 00       	mov    $0x8,%edi
  4014ff:	e8 0c fd ff ff       	callq  401210 <exit@plt>

0000000000401504 <main>:
  401504:	41 56                	push   %r14
  401506:	41 55                	push   %r13
  401508:	41 54                	push   %r12
  40150a:	55                   	push   %rbp
  40150b:	53                   	push   %rbx
  40150c:	89 fd                	mov    %edi,%ebp
  40150e:	48 89 f3             	mov    %rsi,%rbx
  401511:	be 23 22 40 00       	mov    $0x402223,%esi
  401516:	bf 0b 00 00 00       	mov    $0xb,%edi
  40151b:	e8 00 fc ff ff       	callq  401120 <signal@plt>
  401520:	be d5 21 40 00       	mov    $0x4021d5,%esi
  401525:	bf 07 00 00 00       	mov    $0x7,%edi
  40152a:	e8 f1 fb ff ff       	callq  401120 <signal@plt>
  40152f:	be 71 22 40 00       	mov    $0x402271,%esi
  401534:	bf 04 00 00 00       	mov    $0x4,%edi
  401539:	e8 e2 fb ff ff       	callq  401120 <signal@plt>
  40153e:	83 3d eb 5f 00 00 00 	cmpl   $0x0,0x5feb(%rip)        # 407530 <is_checker>
  401545:	75 4b                	jne    401592 <main+0x8e>
  401547:	41 bc 32 45 40 00    	mov    $0x404532,%r12d
  40154d:	48 8b 05 4c 5f 00 00 	mov    0x5f4c(%rip),%rax        # 4074a0 <stdin@@GLIBC_2.2.5>
  401554:	48 89 05 bd 5f 00 00 	mov    %rax,0x5fbd(%rip)        # 407518 <infile>
  40155b:	41 bd 00 00 00 00    	mov    $0x0,%r13d
  401561:	41 be 00 00 00 00    	mov    $0x0,%r14d
  401567:	4c 89 e2             	mov    %r12,%rdx
  40156a:	48 89 de             	mov    %rbx,%rsi
  40156d:	89 ef                	mov    %ebp,%edi
  40156f:	e8 5c fc ff ff       	callq  4011d0 <getopt@plt>
  401574:	3c ff                	cmp    $0xff,%al
  401576:	0f 84 e3 00 00 00    	je     40165f <main+0x15b>
  40157c:	8d 50 9f             	lea    -0x61(%rax),%edx
  40157f:	80 fa 10             	cmp    $0x10,%dl
  401582:	0f 87 bd 00 00 00    	ja     401645 <main+0x141>
  401588:	0f b6 d2             	movzbl %dl,%edx
  40158b:	ff 24 d5 f0 47 40 00 	jmpq   *0x4047f0(,%rdx,8)
  401592:	be bf 22 40 00       	mov    $0x4022bf,%esi
  401597:	bf 0e 00 00 00       	mov    $0xe,%edi
  40159c:	e8 7f fb ff ff       	callq  401120 <signal@plt>
  4015a1:	bf 05 00 00 00       	mov    $0x5,%edi
  4015a6:	e8 35 fb ff ff       	callq  4010e0 <alarm@plt>
  4015ab:	41 bc 37 45 40 00    	mov    $0x404537,%r12d
  4015b1:	eb 9a                	jmp    40154d <main+0x49>
  4015b3:	48 8b 3b             	mov    (%rbx),%rdi
  4015b6:	e8 ab fd ff ff       	callq  401366 <usage>
  4015bb:	be 7f 46 40 00       	mov    $0x40467f,%esi
  4015c0:	48 8b 3d f9 5e 00 00 	mov    0x5ef9(%rip),%rdi        # 4074c0 <optarg@@GLIBC_2.2.5>
  4015c7:	e8 f4 fb ff ff       	callq  4011c0 <fopen@plt>
  4015cc:	48 89 05 45 5f 00 00 	mov    %rax,0x5f45(%rip)        # 407518 <infile>
  4015d3:	48 85 c0             	test   %rax,%rax
  4015d6:	75 8f                	jne    401567 <main+0x63>
  4015d8:	48 8b 15 e1 5e 00 00 	mov    0x5ee1(%rip),%rdx        # 4074c0 <optarg@@GLIBC_2.2.5>
  4015df:	be 3f 45 40 00       	mov    $0x40453f,%esi
  4015e4:	48 8b 3d f5 5e 00 00 	mov    0x5ef5(%rip),%rdi        # 4074e0 <stderr@@GLIBC_2.2.5>
  4015eb:	e8 50 fb ff ff       	callq  401140 <fprintf@plt>
  4015f0:	b8 01 00 00 00       	mov    $0x1,%eax
  4015f5:	e9 aa 00 00 00       	jmpq   4016a4 <main+0x1a0>
  4015fa:	ba 10 00 00 00       	mov    $0x10,%edx
  4015ff:	be 00 00 00 00       	mov    $0x0,%esi
  401604:	48 8b 3d b5 5e 00 00 	mov    0x5eb5(%rip),%rdi        # 4074c0 <optarg@@GLIBC_2.2.5>
  40160b:	e8 d0 fb ff ff       	callq  4011e0 <strtoul@plt>
  401610:	41 89 c6             	mov    %eax,%r14d
  401613:	e9 4f ff ff ff       	jmpq   401567 <main+0x63>
  401618:	ba 0a 00 00 00       	mov    $0xa,%edx
  40161d:	be 00 00 00 00       	mov    $0x0,%esi
  401622:	48 8b 3d 97 5e 00 00 	mov    0x5e97(%rip),%rdi        # 4074c0 <optarg@@GLIBC_2.2.5>
  401629:	e8 22 fb ff ff       	callq  401150 <strtol@plt>
  40162e:	41 89 c5             	mov    %eax,%r13d
  401631:	e9 31 ff ff ff       	jmpq   401567 <main+0x63>
  401636:	c7 05 48 5e 00 00 00 	movl   $0x0,0x5e48(%rip)        # 407488 <notify>
  40163d:	00 00 00 
  401640:	e9 22 ff ff ff       	jmpq   401567 <main+0x63>
  401645:	0f be f0             	movsbl %al,%esi
  401648:	bf 5c 45 40 00       	mov    $0x40455c,%edi
  40164d:	b8 00 00 00 00       	mov    $0x0,%eax
  401652:	e8 69 fa ff ff       	callq  4010c0 <printf@plt>
  401657:	48 8b 3b             	mov    (%rbx),%rdi
  40165a:	e8 07 fd ff ff       	callq  401366 <usage>
  40165f:	be 01 00 00 00       	mov    $0x1,%esi
  401664:	44 89 ef             	mov    %r13d,%edi
  401667:	e8 7a fd ff ff       	callq  4013e6 <initialize_target>
  40166c:	83 3d bd 5e 00 00 00 	cmpl   $0x0,0x5ebd(%rip)        # 407530 <is_checker>
  401673:	74 09                	je     40167e <main+0x17a>
  401675:	44 39 35 ac 5e 00 00 	cmp    %r14d,0x5eac(%rip)        # 407528 <authkey>
  40167c:	75 2f                	jne    4016ad <main+0x1a9>
  40167e:	8b 35 a8 5e 00 00    	mov    0x5ea8(%rip),%esi        # 40752c <cookie>
  401684:	bf 6f 45 40 00       	mov    $0x40456f,%edi
  401689:	b8 00 00 00 00       	mov    $0x0,%eax
  40168e:	e8 2d fa ff ff       	callq  4010c0 <printf@plt>
  401693:	48 8b 3d f6 5d 00 00 	mov    0x5df6(%rip),%rdi        # 407490 <buf_offset>
  40169a:	e8 6e 0c 00 00       	callq  40230d <launch>
  40169f:	b8 00 00 00 00       	mov    $0x0,%eax
  4016a4:	5b                   	pop    %rbx
  4016a5:	5d                   	pop    %rbp
  4016a6:	41 5c                	pop    %r12
  4016a8:	41 5d                	pop    %r13
  4016aa:	41 5e                	pop    %r14
  4016ac:	c3                   	retq   
  4016ad:	44 89 f6             	mov    %r14d,%esi
  4016b0:	bf 50 41 40 00       	mov    $0x404150,%edi
  4016b5:	b8 00 00 00 00       	mov    $0x0,%eax
  4016ba:	e8 01 fa ff ff       	callq  4010c0 <printf@plt>
  4016bf:	b8 00 00 00 00       	mov    $0x0,%eax
  4016c4:	e8 10 08 00 00       	callq  401ed9 <check_fail>
  4016c9:	eb b3                	jmp    40167e <main+0x17a>
  4016cb:	66 2e 0f 1f 84 00 00 	nopw   %cs:0x0(%rax,%rax,1)
  4016d2:	00 00 00 
  4016d5:	66 2e 0f 1f 84 00 00 	nopw   %cs:0x0(%rax,%rax,1)
  4016dc:	00 00 00 
  4016df:	90                   	nop

00000000004016e0 <scramble>:
  4016e0:	b8 00 00 00 00       	mov    $0x0,%eax
  4016e5:	eb 2a                	jmp    401711 <scramble+0x31>
  4016e7:	66 66 2e 0f 1f 84 00 	data16 nopw %cs:0x0(%rax,%rax,1)
  4016ee:	00 00 00 00 
  4016f2:	66 66 2e 0f 1f 84 00 	data16 nopw %cs:0x0(%rax,%rax,1)
  4016f9:	00 00 00 00 
  4016fd:	0f 1f 00             	nopl   (%rax)
  401700:	69 d0 8d c0 00 00    	imul   $0xc08d,%eax,%edx
  401706:	01 fa                	add    %edi,%edx
  401708:	89 c1                	mov    %eax,%ecx
  40170a:	89 54 8c c8          	mov    %edx,-0x38(%rsp,%rcx,4)
  40170e:	83 c0 01             	add    $0x1,%eax
  401711:	83 f8 09             	cmp    $0x9,%eax
  401714:	76 ea                	jbe    401700 <scramble+0x20>
  401716:	8b 44 24 d4          	mov    -0x2c(%rsp),%eax
  40171a:	69 c0 3c 9a 00 00    	imul   $0x9a3c,%eax,%eax
  401720:	89 44 24 d4          	mov    %eax,-0x2c(%rsp)
  401724:	8b 44 24 dc          	mov    -0x24(%rsp),%eax
  401728:	69 c0 44 d4 00 00    	imul   $0xd444,%eax,%eax
  40172e:	89 44 24 dc          	mov    %eax,-0x24(%rsp)
  401732:	8b 44 24 d0          	mov    -0x30(%rsp),%eax
  401736:	69 c0 cb cf 00 00    	imul   $0xcfcb,%eax,%eax
  40173c:	89 44 24 d0          	mov    %eax,-0x30(%rsp)
  401740:	8b 44 24 d0          	mov    -0x30(%rsp),%eax
  401744:	69 c0 be 4a 00 00    	imul   $0x4abe,%eax,%eax
  40174a:	89 44 24 d0          	mov    %eax,-0x30(%rsp)
  40174e:	8b 44 24 d0          	mov    -0x30(%rsp),%eax
  401752:	69 c0 7a c2 00 00    	imul   $0xc27a,%eax,%eax
  401758:	89 44 24 d0          	mov    %eax,-0x30(%rsp)
  40175c:	8b 44 24 cc          	mov    -0x34(%rsp),%eax
  401760:	69 c0 57 a0 00 00    	imul   $0xa057,%eax,%eax
  401766:	89 44 24 cc          	mov    %eax,-0x34(%rsp)
  40176a:	8b 44 24 ec          	mov    -0x14(%rsp),%eax
  40176e:	69 c0 8f 6e 00 00    	imul   $0x6e8f,%eax,%eax
  401774:	89 44 24 ec          	mov    %eax,-0x14(%rsp)
  401778:	8b 44 24 dc          	mov    -0x24(%rsp),%eax
  40177c:	69 c0 44 e6 00 00    	imul   $0xe644,%eax,%eax
  401782:	89 44 24 dc          	mov    %eax,-0x24(%rsp)
  401786:	8b 44 24 d8          	mov    -0x28(%rsp),%eax
  40178a:	69 c0 d9 e2 00 00    	imul   $0xe2d9,%eax,%eax
  401790:	89 44 24 d8          	mov    %eax,-0x28(%rsp)
  401794:	8b 44 24 e0          	mov    -0x20(%rsp),%eax
  401798:	69 c0 42 ba 00 00    	imul   $0xba42,%eax,%eax
  40179e:	89 44 24 e0          	mov    %eax,-0x20(%rsp)
  4017a2:	8b 44 24 d8          	mov    -0x28(%rsp),%eax
  4017a6:	69 c0 4b 62 00 00    	imul   $0x624b,%eax,%eax
  4017ac:	89 44 24 d8          	mov    %eax,-0x28(%rsp)
  4017b0:	8b 44 24 e4          	mov    -0x1c(%rsp),%eax
  4017b4:	69 c0 fc 01 00 00    	imul   $0x1fc,%eax,%eax
  4017ba:	89 44 24 e4          	mov    %eax,-0x1c(%rsp)
  4017be:	8b 44 24 cc          	mov    -0x34(%rsp),%eax
  4017c2:	69 c0 d7 33 00 00    	imul   $0x33d7,%eax,%eax
  4017c8:	89 44 24 cc          	mov    %eax,-0x34(%rsp)
  4017cc:	8b 44 24 ec          	mov    -0x14(%rsp),%eax
  4017d0:	69 c0 22 71 00 00    	imul   $0x7122,%eax,%eax
  4017d6:	89 44 24 ec          	mov    %eax,-0x14(%rsp)
  4017da:	8b 44 24 d4          	mov    -0x2c(%rsp),%eax
  4017de:	69 c0 09 d6 00 00    	imul   $0xd609,%eax,%eax
  4017e4:	89 44 24 d4          	mov    %eax,-0x2c(%rsp)
  4017e8:	8b 44 24 dc          	mov    -0x24(%rsp),%eax
  4017ec:	69 c0 7f 1a 00 00    	imul   $0x1a7f,%eax,%eax
  4017f2:	89 44 24 dc          	mov    %eax,-0x24(%rsp)
  4017f6:	8b 44 24 ec          	mov    -0x14(%rsp),%eax
  4017fa:	69 c0 9e f6 00 00    	imul   $0xf69e,%eax,%eax
  401800:	89 44 24 ec          	mov    %eax,-0x14(%rsp)
  401804:	8b 44 24 d0          	mov    -0x30(%rsp),%eax
  401808:	69 c0 42 e7 00 00    	imul   $0xe742,%eax,%eax
  40180e:	89 44 24 d0          	mov    %eax,-0x30(%rsp)
  401812:	8b 44 24 ec          	mov    -0x14(%rsp),%eax
  401816:	69 c0 73 5f 00 00    	imul   $0x5f73,%eax,%eax
  40181c:	89 44 24 ec          	mov    %eax,-0x14(%rsp)
  401820:	8b 44 24 e4          	mov    -0x1c(%rsp),%eax
  401824:	69 c0 32 f8 00 00    	imul   $0xf832,%eax,%eax
  40182a:	89 44 24 e4          	mov    %eax,-0x1c(%rsp)
  40182e:	8b 44 24 e4          	mov    -0x1c(%rsp),%eax
  401832:	69 c0 77 b5 00 00    	imul   $0xb577,%eax,%eax
  401838:	89 44 24 e4          	mov    %eax,-0x1c(%rsp)
  40183c:	8b 44 24 cc          	mov    -0x34(%rsp),%eax
  401840:	69 c0 96 9f 00 00    	imul   $0x9f96,%eax,%eax
  401846:	89 44 24 cc          	mov    %eax,-0x34(%rsp)
  40184a:	8b 44 24 e8          	mov    -0x18(%rsp),%eax
  40184e:	69 c0 4f 28 00 00    	imul   $0x284f,%eax,%eax
  401854:	89 44 24 e8          	mov    %eax,-0x18(%rsp)
  401858:	8b 44 24 c8          	mov    -0x38(%rsp),%eax
  40185c:	69 c0 02 07 00 00    	imul   $0x702,%eax,%eax
  401862:	89 44 24 c8          	mov    %eax,-0x38(%rsp)
  401866:	8b 44 24 cc          	mov    -0x34(%rsp),%eax
  40186a:	69 c0 25 79 00 00    	imul   $0x7925,%eax,%eax
  401870:	89 44 24 cc          	mov    %eax,-0x34(%rsp)
  401874:	8b 44 24 d8          	mov    -0x28(%rsp),%eax
  401878:	69 c0 9b 36 00 00    	imul   $0x369b,%eax,%eax
  40187e:	89 44 24 d8          	mov    %eax,-0x28(%rsp)
  401882:	8b 44 24 cc          	mov    -0x34(%rsp),%eax
  401886:	69 c0 df 7a 00 00    	imul   $0x7adf,%eax,%eax
  40188c:	89 44 24 cc          	mov    %eax,-0x34(%rsp)
  401890:	8b 44 24 ec          	mov    -0x14(%rsp),%eax
  401894:	69 c0 a7 c6 00 00    	imul   $0xc6a7,%eax,%eax
  40189a:	89 44 24 ec          	mov    %eax,-0x14(%rsp)
  40189e:	8b 44 24 d4          	mov    -0x2c(%rsp),%eax
  4018a2:	69 c0 f8 4c 00 00    	imul   $0x4cf8,%eax,%eax
  4018a8:	89 44 24 d4          	mov    %eax,-0x2c(%rsp)
  4018ac:	8b 44 24 cc          	mov    -0x34(%rsp),%eax
  4018b0:	69 c0 a8 08 00 00    	imul   $0x8a8,%eax,%eax
  4018b6:	89 44 24 cc          	mov    %eax,-0x34(%rsp)
  4018ba:	8b 44 24 ec          	mov    -0x14(%rsp),%eax
  4018be:	69 c0 a0 38 00 00    	imul   $0x38a0,%eax,%eax
  4018c4:	89 44 24 ec          	mov    %eax,-0x14(%rsp)
  4018c8:	8b 44 24 dc          	mov    -0x24(%rsp),%eax
  4018cc:	69 c0 47 93 00 00    	imul   $0x9347,%eax,%eax
  4018d2:	89 44 24 dc          	mov    %eax,-0x24(%rsp)
  4018d6:	8b 44 24 cc          	mov    -0x34(%rsp),%eax
  4018da:	69 c0 ea 11 00 00    	imul   $0x11ea,%eax,%eax
  4018e0:	89 44 24 cc          	mov    %eax,-0x34(%rsp)
  4018e4:	8b 44 24 d4          	mov    -0x2c(%rsp),%eax
  4018e8:	69 c0 a9 f5 00 00    	imul   $0xf5a9,%eax,%eax
  4018ee:	89 44 24 d4          	mov    %eax,-0x2c(%rsp)
  4018f2:	8b 44 24 dc          	mov    -0x24(%rsp),%eax
  4018f6:	69 c0 8a ac 00 00    	imul   $0xac8a,%eax,%eax
  4018fc:	89 44 24 dc          	mov    %eax,-0x24(%rsp)
  401900:	8b 44 24 d8          	mov    -0x28(%rsp),%eax
  401904:	69 c0 4a 93 00 00    	imul   $0x934a,%eax,%eax
  40190a:	89 44 24 d8          	mov    %eax,-0x28(%rsp)
  40190e:	8b 44 24 ec          	mov    -0x14(%rsp),%eax
  401912:	69 c0 64 86 00 00    	imul   $0x8664,%eax,%eax
  401918:	89 44 24 ec          	mov    %eax,-0x14(%rsp)
  40191c:	8b 44 24 cc          	mov    -0x34(%rsp),%eax
  401920:	69 c0 09 86 00 00    	imul   $0x8609,%eax,%eax
  401926:	89 44 24 cc          	mov    %eax,-0x34(%rsp)
  40192a:	8b 44 24 e4          	mov    -0x1c(%rsp),%eax
  40192e:	69 c0 bb b8 00 00    	imul   $0xb8bb,%eax,%eax
  401934:	89 44 24 e4          	mov    %eax,-0x1c(%rsp)
  401938:	8b 44 24 d0          	mov    -0x30(%rsp),%eax
  40193c:	69 c0 dc b9 00 00    	imul   $0xb9dc,%eax,%eax
  401942:	89 44 24 d0          	mov    %eax,-0x30(%rsp)
  401946:	8b 44 24 d4          	mov    -0x2c(%rsp),%eax
  40194a:	69 c0 50 4e 00 00    	imul   $0x4e50,%eax,%eax
  401950:	89 44 24 d4          	mov    %eax,-0x2c(%rsp)
  401954:	8b 44 24 e0          	mov    -0x20(%rsp),%eax
  401958:	69 c0 50 0d 00 00    	imul   $0xd50,%eax,%eax
  40195e:	89 44 24 e0          	mov    %eax,-0x20(%rsp)
  401962:	8b 44 24 c8          	mov    -0x38(%rsp),%eax
  401966:	69 c0 0e 29 00 00    	imul   $0x290e,%eax,%eax
  40196c:	89 44 24 c8          	mov    %eax,-0x38(%rsp)
  401970:	8b 44 24 c8          	mov    -0x38(%rsp),%eax
  401974:	69 c0 e7 77 00 00    	imul   $0x77e7,%eax,%eax
  40197a:	89 44 24 c8          	mov    %eax,-0x38(%rsp)
  40197e:	8b 44 24 e4          	mov    -0x1c(%rsp),%eax
  401982:	69 c0 c1 0b 00 00    	imul   $0xbc1,%eax,%eax
  401988:	89 44 24 e4          	mov    %eax,-0x1c(%rsp)
  40198c:	8b 44 24 d0          	mov    -0x30(%rsp),%eax
  401990:	69 c0 08 99 00 00    	imul   $0x9908,%eax,%eax
  401996:	89 44 24 d0          	mov    %eax,-0x30(%rsp)
  40199a:	8b 44 24 cc          	mov    -0x34(%rsp),%eax
  40199e:	69 c0 b7 a3 00 00    	imul   $0xa3b7,%eax,%eax
  4019a4:	89 44 24 cc          	mov    %eax,-0x34(%rsp)
  4019a8:	8b 44 24 cc          	mov    -0x34(%rsp),%eax
  4019ac:	69 c0 a1 73 00 00    	imul   $0x73a1,%eax,%eax
  4019b2:	89 44 24 cc          	mov    %eax,-0x34(%rsp)
  4019b6:	8b 44 24 e0          	mov    -0x20(%rsp),%eax
  4019ba:	69 c0 d8 a6 00 00    	imul   $0xa6d8,%eax,%eax
  4019c0:	89 44 24 e0          	mov    %eax,-0x20(%rsp)
  4019c4:	8b 44 24 e4          	mov    -0x1c(%rsp),%eax
  4019c8:	69 c0 ff 26 00 00    	imul   $0x26ff,%eax,%eax
  4019ce:	89 44 24 e4          	mov    %eax,-0x1c(%rsp)
  4019d2:	8b 44 24 e4          	mov    -0x1c(%rsp),%eax
  4019d6:	69 c0 25 57 00 00    	imul   $0x5725,%eax,%eax
  4019dc:	89 44 24 e4          	mov    %eax,-0x1c(%rsp)
  4019e0:	8b 44 24 dc          	mov    -0x24(%rsp),%eax
  4019e4:	69 c0 65 b5 00 00    	imul   $0xb565,%eax,%eax
  4019ea:	89 44 24 dc          	mov    %eax,-0x24(%rsp)
  4019ee:	8b 44 24 c8          	mov    -0x38(%rsp),%eax
  4019f2:	69 c0 2a ed 00 00    	imul   $0xed2a,%eax,%eax
  4019f8:	89 44 24 c8          	mov    %eax,-0x38(%rsp)
  4019fc:	8b 44 24 e0          	mov    -0x20(%rsp),%eax
  401a00:	69 c0 3d 8c 00 00    	imul   $0x8c3d,%eax,%eax
  401a06:	89 44 24 e0          	mov    %eax,-0x20(%rsp)
  401a0a:	8b 44 24 d4          	mov    -0x2c(%rsp),%eax
  401a0e:	69 c0 79 c8 00 00    	imul   $0xc879,%eax,%eax
  401a14:	89 44 24 d4          	mov    %eax,-0x2c(%rsp)
  401a18:	8b 44 24 e8          	mov    -0x18(%rsp),%eax
  401a1c:	69 c0 c6 d7 00 00    	imul   $0xd7c6,%eax,%eax
  401a22:	89 44 24 e8          	mov    %eax,-0x18(%rsp)
  401a26:	8b 44 24 e4          	mov    -0x1c(%rsp),%eax
  401a2a:	69 c0 90 36 00 00    	imul   $0x3690,%eax,%eax
  401a30:	89 44 24 e4          	mov    %eax,-0x1c(%rsp)
  401a34:	8b 44 24 d8          	mov    -0x28(%rsp),%eax
  401a38:	69 c0 fa df 00 00    	imul   $0xdffa,%eax,%eax
  401a3e:	89 44 24 d8          	mov    %eax,-0x28(%rsp)
  401a42:	8b 44 24 d4          	mov    -0x2c(%rsp),%eax
  401a46:	69 c0 0f b9 00 00    	imul   $0xb90f,%eax,%eax
  401a4c:	89 44 24 d4          	mov    %eax,-0x2c(%rsp)
  401a50:	8b 44 24 d8          	mov    -0x28(%rsp),%eax
  401a54:	69 c0 a4 d5 00 00    	imul   $0xd5a4,%eax,%eax
  401a5a:	89 44 24 d8          	mov    %eax,-0x28(%rsp)
  401a5e:	8b 44 24 e8          	mov    -0x18(%rsp),%eax
  401a62:	69 c0 70 d8 00 00    	imul   $0xd870,%eax,%eax
  401a68:	89 44 24 e8          	mov    %eax,-0x18(%rsp)
  401a6c:	8b 44 24 d4          	mov    -0x2c(%rsp),%eax
  401a70:	69 c0 32 09 00 00    	imul   $0x932,%eax,%eax
  401a76:	89 44 24 d4          	mov    %eax,-0x2c(%rsp)
  401a7a:	8b 44 24 dc          	mov    -0x24(%rsp),%eax
  401a7e:	69 c0 fb 9a 00 00    	imul   $0x9afb,%eax,%eax
  401a84:	89 44 24 dc          	mov    %eax,-0x24(%rsp)
  401a88:	8b 44 24 e0          	mov    -0x20(%rsp),%eax
  401a8c:	69 c0 c9 31 00 00    	imul   $0x31c9,%eax,%eax
  401a92:	89 44 24 e0          	mov    %eax,-0x20(%rsp)
  401a96:	8b 44 24 d0          	mov    -0x30(%rsp),%eax
  401a9a:	69 c0 1d e6 00 00    	imul   $0xe61d,%eax,%eax
  401aa0:	89 44 24 d0          	mov    %eax,-0x30(%rsp)
  401aa4:	8b 44 24 e0          	mov    -0x20(%rsp),%eax
  401aa8:	69 c0 37 95 00 00    	imul   $0x9537,%eax,%eax
  401aae:	89 44 24 e0          	mov    %eax,-0x20(%rsp)
  401ab2:	8b 44 24 e0          	mov    -0x20(%rsp),%eax
  401ab6:	69 c0 11 13 00 00    	imul   $0x1311,%eax,%eax
  401abc:	89 44 24 e0          	mov    %eax,-0x20(%rsp)
  401ac0:	8b 44 24 e0          	mov    -0x20(%rsp),%eax
  401ac4:	69 c0 cc 1a 00 00    	imul   $0x1acc,%eax,%eax
  401aca:	89 44 24 e0          	mov    %eax,-0x20(%rsp)
  401ace:	8b 44 24 d4          	mov    -0x2c(%rsp),%eax
  401ad2:	69 c0 0a 86 00 00    	imul   $0x860a,%eax,%eax
  401ad8:	89 44 24 d4          	mov    %eax,-0x2c(%rsp)
  401adc:	8b 44 24 dc          	mov    -0x24(%rsp),%eax
  401ae0:	69 c0 22 a6 00 00    	imul   $0xa622,%eax,%eax
  401ae6:	89 44 24 dc          	mov    %eax,-0x24(%rsp)
  401aea:	8b 44 24 d0          	mov    -0x30(%rsp),%eax
  401aee:	69 c0 22 ed 00 00    	imul   $0xed22,%eax,%eax
  401af4:	89 44 24 d0          	mov    %eax,-0x30(%rsp)
  401af8:	8b 44 24 d8          	mov    -0x28(%rsp),%eax
  401afc:	69 c0 4d 65 00 00    	imul   $0x654d,%eax,%eax
  401b02:	89 44 24 d8          	mov    %eax,-0x28(%rsp)
  401b06:	8b 44 24 ec          	mov    -0x14(%rsp),%eax
  401b0a:	69 c0 ff 62 00 00    	imul   $0x62ff,%eax,%eax
  401b10:	89 44 24 ec          	mov    %eax,-0x14(%rsp)
  401b14:	8b 44 24 e8          	mov    -0x18(%rsp),%eax
  401b18:	69 c0 50 83 00 00    	imul   $0x8350,%eax,%eax
  401b1e:	89 44 24 e8          	mov    %eax,-0x18(%rsp)
  401b22:	8b 44 24 d8          	mov    -0x28(%rsp),%eax
  401b26:	69 c0 28 9d 00 00    	imul   $0x9d28,%eax,%eax
  401b2c:	89 44 24 d8          	mov    %eax,-0x28(%rsp)
  401b30:	8b 44 24 dc          	mov    -0x24(%rsp),%eax
  401b34:	69 c0 df e0 00 00    	imul   $0xe0df,%eax,%eax
  401b3a:	89 44 24 dc          	mov    %eax,-0x24(%rsp)
  401b3e:	8b 44 24 cc          	mov    -0x34(%rsp),%eax
  401b42:	69 c0 a1 c7 00 00    	imul   $0xc7a1,%eax,%eax
  401b48:	89 44 24 cc          	mov    %eax,-0x34(%rsp)
  401b4c:	8b 44 24 e0          	mov    -0x20(%rsp),%eax
  401b50:	69 c0 c0 f1 00 00    	imul   $0xf1c0,%eax,%eax
  401b56:	89 44 24 e0          	mov    %eax,-0x20(%rsp)
  401b5a:	8b 44 24 dc          	mov    -0x24(%rsp),%eax
  401b5e:	69 c0 e5 66 00 00    	imul   $0x66e5,%eax,%eax
  401b64:	89 44 24 dc          	mov    %eax,-0x24(%rsp)
  401b68:	8b 44 24 d0          	mov    -0x30(%rsp),%eax
  401b6c:	69 c0 70 a4 00 00    	imul   $0xa470,%eax,%eax
  401b72:	89 44 24 d0          	mov    %eax,-0x30(%rsp)
  401b76:	8b 44 24 e4          	mov    -0x1c(%rsp),%eax
  401b7a:	69 c0 51 7c 00 00    	imul   $0x7c51,%eax,%eax
  401b80:	89 44 24 e4          	mov    %eax,-0x1c(%rsp)
  401b84:	8b 44 24 e4          	mov    -0x1c(%rsp),%eax
  401b88:	69 c0 45 8a 00 00    	imul   $0x8a45,%eax,%eax
  401b8e:	89 44 24 e4          	mov    %eax,-0x1c(%rsp)
  401b92:	b8 00 00 00 00       	mov    $0x0,%eax
  401b97:	ba 00 00 00 00       	mov    $0x0,%edx
  401b9c:	eb 0d                	jmp    401bab <scramble+0x4cb>
  401b9e:	66 90                	xchg   %ax,%ax
  401ba0:	89 c1                	mov    %eax,%ecx
  401ba2:	8b 4c 8c c8          	mov    -0x38(%rsp,%rcx,4),%ecx
  401ba6:	01 ca                	add    %ecx,%edx
  401ba8:	83 c0 01             	add    $0x1,%eax
  401bab:	83 f8 09             	cmp    $0x9,%eax
  401bae:	76 f0                	jbe    401ba0 <scramble+0x4c0>
  401bb0:	89 d0                	mov    %edx,%eax
  401bb2:	c3                   	retq   

0000000000401bb3 <getbuf>:
  401bb3:	48 83 ec 28          	sub    $0x28,%rsp
  401bb7:	48 89 e7             	mov    %rsp,%rdi
  401bba:	e8 49 03 00 00       	callq  401f08 <Gets>
  401bbf:	b8 01 00 00 00       	mov    $0x1,%eax
  401bc4:	48 83 c4 28          	add    $0x28,%rsp
  401bc8:	c3                   	retq   

0000000000401bc9 <touch1>:
  401bc9:	48 83 ec 08          	sub    $0x8,%rsp
  401bcd:	c7 05 4d 59 00 00 01 	movl   $0x1,0x594d(%rip)        # 407524 <vlevel>
  401bd4:	00 00 00 
  401bd7:	bf 9b 45 40 00       	mov    $0x40459b,%edi
  401bdc:	e8 9f f4 ff ff       	callq  401080 <puts@plt>
  401be1:	bf 01 00 00 00       	mov    $0x1,%edi
  401be6:	e8 10 05 00 00       	callq  4020fb <validate>
  401beb:	bf 00 00 00 00       	mov    $0x0,%edi
  401bf0:	e8 1b f6 ff ff       	callq  401210 <exit@plt>

0000000000401bf5 <touch2>:
  401bf5:	48 83 ec 08          	sub    $0x8,%rsp
  401bf9:	89 fe                	mov    %edi,%esi
  401bfb:	c7 05 1f 59 00 00 02 	movl   $0x2,0x591f(%rip)        # 407524 <vlevel>
  401c02:	00 00 00 
  401c05:	39 3d 21 59 00 00    	cmp    %edi,0x5921(%rip)        # 40752c <cookie>
  401c0b:	74 23                	je     401c30 <touch2+0x3b>
  401c0d:	bf a8 41 40 00       	mov    $0x4041a8,%edi
  401c12:	b8 00 00 00 00       	mov    $0x0,%eax
  401c17:	e8 a4 f4 ff ff       	callq  4010c0 <printf@plt>
  401c1c:	bf 02 00 00 00       	mov    $0x2,%edi
  401c21:	e8 87 05 00 00       	callq  4021ad <fail>
  401c26:	bf 00 00 00 00       	mov    $0x0,%edi
  401c2b:	e8 e0 f5 ff ff       	callq  401210 <exit@plt>
  401c30:	bf 80 41 40 00       	mov    $0x404180,%edi
  401c35:	b8 00 00 00 00       	mov    $0x0,%eax
  401c3a:	e8 81 f4 ff ff       	callq  4010c0 <printf@plt>
  401c3f:	bf 02 00 00 00       	mov    $0x2,%edi
  401c44:	e8 b2 04 00 00       	callq  4020fb <validate>
  401c49:	eb db                	jmp    401c26 <touch2+0x31>

0000000000401c4b <hexmatch>:
  401c4b:	41 54                	push   %r12
  401c4d:	55                   	push   %rbp
  401c4e:	53                   	push   %rbx
  401c4f:	48 83 ec 70          	sub    $0x70,%rsp
  401c53:	89 fd                	mov    %edi,%ebp
  401c55:	48 89 f3             	mov    %rsi,%rbx
  401c58:	e8 23 f5 ff ff       	callq  401180 <random@plt>
  401c5d:	48 89 c1             	mov    %rax,%rcx
  401c60:	48 ba 0b d7 a3 70 3d 	movabs $0xa3d70a3d70a3d70b,%rdx
  401c67:	0a d7 a3 
  401c6a:	48 f7 ea             	imul   %rdx
  401c6d:	48 01 ca             	add    %rcx,%rdx
  401c70:	48 c1 fa 06          	sar    $0x6,%rdx
  401c74:	48 89 c8             	mov    %rcx,%rax
  401c77:	48 c1 f8 3f          	sar    $0x3f,%rax
  401c7b:	48 29 c2             	sub    %rax,%rdx
  401c7e:	48 8d 04 92          	lea    (%rdx,%rdx,4),%rax
  401c82:	48 8d 04 80          	lea    (%rax,%rax,4),%rax
  401c86:	48 c1 e0 02          	shl    $0x2,%rax
  401c8a:	48 29 c1             	sub    %rax,%rcx
  401c8d:	4c 8d 24 0c          	lea    (%rsp,%rcx,1),%r12
  401c91:	89 ea                	mov    %ebp,%edx
  401c93:	be b8 45 40 00       	mov    $0x4045b8,%esi
  401c98:	4c 89 e7             	mov    %r12,%rdi
  401c9b:	b8 00 00 00 00       	mov    $0x0,%eax
  401ca0:	e8 5b f5 ff ff       	callq  401200 <sprintf@plt>
  401ca5:	ba 09 00 00 00       	mov    $0x9,%edx
  401caa:	4c 89 e6             	mov    %r12,%rsi
  401cad:	48 89 df             	mov    %rbx,%rdi
  401cb0:	e8 ab f3 ff ff       	callq  401060 <strncmp@plt>
  401cb5:	85 c0                	test   %eax,%eax
  401cb7:	0f 94 c0             	sete   %al
  401cba:	0f b6 c0             	movzbl %al,%eax
  401cbd:	48 83 c4 70          	add    $0x70,%rsp
  401cc1:	5b                   	pop    %rbx
  401cc2:	5d                   	pop    %rbp
  401cc3:	41 5c                	pop    %r12
  401cc5:	c3                   	retq   

0000000000401cc6 <touch3>:
  401cc6:	53                   	push   %rbx
  401cc7:	48 89 fb             	mov    %rdi,%rbx
  401cca:	c7 05 50 58 00 00 03 	movl   $0x3,0x5850(%rip)        # 407524 <vlevel>
  401cd1:	00 00 00 
  401cd4:	48 89 fe             	mov    %rdi,%rsi
  401cd7:	8b 3d 4f 58 00 00    	mov    0x584f(%rip),%edi        # 40752c <cookie>
  401cdd:	e8 69 ff ff ff       	callq  401c4b <hexmatch>
  401ce2:	85 c0                	test   %eax,%eax
  401ce4:	74 26                	je     401d0c <touch3+0x46>
  401ce6:	48 89 de             	mov    %rbx,%rsi
  401ce9:	bf d0 41 40 00       	mov    $0x4041d0,%edi
  401cee:	b8 00 00 00 00       	mov    $0x0,%eax
  401cf3:	e8 c8 f3 ff ff       	callq  4010c0 <printf@plt>
  401cf8:	bf 03 00 00 00       	mov    $0x3,%edi
  401cfd:	e8 f9 03 00 00       	callq  4020fb <validate>
  401d02:	bf 00 00 00 00       	mov    $0x0,%edi
  401d07:	e8 04 f5 ff ff       	callq  401210 <exit@plt>
  401d0c:	48 89 de             	mov    %rbx,%rsi
  401d0f:	bf f8 41 40 00       	mov    $0x4041f8,%edi
  401d14:	b8 00 00 00 00       	mov    $0x0,%eax
  401d19:	e8 a2 f3 ff ff       	callq  4010c0 <printf@plt>
  401d1e:	bf 03 00 00 00       	mov    $0x3,%edi
  401d23:	e8 85 04 00 00       	callq  4021ad <fail>
  401d28:	eb d8                	jmp    401d02 <touch3+0x3c>

0000000000401d2a <test>:
  401d2a:	48 83 ec 08          	sub    $0x8,%rsp
  401d2e:	b8 00 00 00 00       	mov    $0x0,%eax
  401d33:	e8 7b fe ff ff       	callq  401bb3 <getbuf>
  401d38:	89 c6                	mov    %eax,%esi
  401d3a:	bf 20 42 40 00       	mov    $0x404220,%edi
  401d3f:	b8 00 00 00 00       	mov    $0x0,%eax
  401d44:	e8 77 f3 ff ff       	callq  4010c0 <printf@plt>
  401d49:	48 83 c4 08          	add    $0x8,%rsp
  401d4d:	c3                   	retq   

0000000000401d4e <start_farm>:
  401d4e:	b8 01 00 00 00       	mov    $0x1,%eax
  401d53:	c3                   	retq   

0000000000401d54 <getval_440>:
  401d54:	b8 48 89 c7 c3       	mov    $0xc3c78948,%eax
  401d59:	c3                   	retq   

0000000000401d5a <setval_206>:
  401d5a:	c7 07 c8 89 c7 c3    	movl   $0xc3c789c8,(%rdi)
  401d60:	c3                   	retq   

0000000000401d61 <addval_234>:
  401d61:	8d 87 d8 c3 da f9    	lea    -0x6253c28(%rdi),%eax
  401d67:	c3                   	retq   

0000000000401d68 <setval_310>:
  401d68:	c7 07 78 90 90 c3    	movl   $0xc3909078,(%rdi)
  401d6e:	c3                   	retq   

0000000000401d6f <addval_412>:
  401d6f:	8d 87 48 89 c7 90    	lea    -0x6f3876b8(%rdi),%eax
  401d75:	c3                   	retq   

0000000000401d76 <addval_370>:
  401d76:	8d 87 58 90 90 c3    	lea    -0x3c6f6fa8(%rdi),%eax
  401d7c:	c3                   	retq   

0000000000401d7d <getval_498>:
  401d7d:	b8 48 89 c7 91       	mov    $0x91c78948,%eax
  401d82:	c3                   	retq   

0000000000401d83 <getval_462>:
  401d83:	b8 58 90 90 c3       	mov    $0xc3909058,%eax
  401d88:	c3                   	retq   

0000000000401d89 <mid_farm>:
  401d89:	b8 01 00 00 00       	mov    $0x1,%eax
  401d8e:	c3                   	retq   

0000000000401d8f <add_xy>:
  401d8f:	48 8d 04 37          	lea    (%rdi,%rsi,1),%rax
  401d93:	c3                   	retq   

0000000000401d94 <getval_421>:
  401d94:	b8 89 ce 60 d2       	mov    $0xd260ce89,%eax
  401d99:	c3                   	retq   

0000000000401d9a <setval_454>:
  401d9a:	c7 07 48 89 e0 94    	movl   $0x94e08948,(%rdi)
  401da0:	c3                   	retq   

0000000000401da1 <getval_455>:
  401da1:	b8 8b d1 38 c9       	mov    $0xc938d18b,%eax
  401da6:	c3                   	retq   

0000000000401da7 <setval_263>:
  401da7:	c7 07 a9 c2 84 d2    	movl   $0xd284c2a9,(%rdi)
  401dad:	c3                   	retq   

0000000000401dae <addval_122>:
  401dae:	8d 87 21 89 ce c3    	lea    -0x3c3176df(%rdi),%eax
  401db4:	c3                   	retq   

0000000000401db5 <addval_244>:
  401db5:	8d 87 89 d1 08 c9    	lea    -0x36f72e77(%rdi),%eax
  401dbb:	c3                   	retq   

0000000000401dbc <addval_383>:
  401dbc:	8d 87 89 d1 28 db    	lea    -0x24d72e77(%rdi),%eax
  401dc2:	c3                   	retq   

0000000000401dc3 <getval_194>:
  401dc3:	b8 89 c2 60 db       	mov    $0xdb60c289,%eax
  401dc8:	c3                   	retq   

0000000000401dc9 <addval_458>:
  401dc9:	8d 87 c9 ce 90 90    	lea    -0x6f6f3137(%rdi),%eax
  401dcf:	c3                   	retq   

0000000000401dd0 <addval_395>:
  401dd0:	8d 87 88 c2 84 c0    	lea    -0x3f7b3d78(%rdi),%eax
  401dd6:	c3                   	retq   

0000000000401dd7 <setval_142>:
  401dd7:	c7 07 89 c2 30 db    	movl   $0xdb30c289,(%rdi)
  401ddd:	c3                   	retq   

0000000000401dde <getval_340>:
  401dde:	b8 89 d1 94 c9       	mov    $0xc994d189,%eax
  401de3:	c3                   	retq   

0000000000401de4 <addval_209>:
  401de4:	8d 87 ee 51 8b c2    	lea    -0x3d74ae12(%rdi),%eax
  401dea:	c3                   	retq   

0000000000401deb <getval_288>:
  401deb:	b8 48 89 e0 c3       	mov    $0xc3e08948,%eax
  401df0:	c3                   	retq   

0000000000401df1 <setval_423>:
  401df1:	c7 07 48 89 e0 c2    	movl   $0xc2e08948,(%rdi)
  401df7:	c3                   	retq   

0000000000401df8 <addval_106>:
  401df8:	8d 87 8b ce c3 a4    	lea    -0x5b3c3175(%rdi),%eax
  401dfe:	c3                   	retq   

0000000000401dff <getval_479>:
  401dff:	b8 89 ce 90 c3       	mov    $0xc390ce89,%eax
  401e04:	c3                   	retq   

0000000000401e05 <setval_245>:
  401e05:	c7 07 48 89 e0 c3    	movl   $0xc3e08948,(%rdi)
  401e0b:	c3                   	retq   

0000000000401e0c <getval_150>:
  401e0c:	b8 09 d1 20 c0       	mov    $0xc020d109,%eax
  401e11:	c3                   	retq   

0000000000401e12 <getval_468>:
  401e12:	b8 09 ce 84 db       	mov    $0xdb84ce09,%eax
  401e17:	c3                   	retq   

0000000000401e18 <getval_171>:
  401e18:	b8 48 89 e0 94       	mov    $0x94e08948,%eax
  401e1d:	c3                   	retq   

0000000000401e1e <setval_289>:
  401e1e:	c7 07 89 d1 30 d2    	movl   $0xd230d189,(%rdi)
  401e24:	c3                   	retq   

0000000000401e25 <setval_153>:
  401e25:	c7 07 89 c2 20 c9    	movl   $0xc920c289,(%rdi)
  401e2b:	c3                   	retq   

0000000000401e2c <setval_481>:
  401e2c:	c7 07 48 a9 e0 c3    	movl   $0xc3e0a948,(%rdi)
  401e32:	c3                   	retq   

0000000000401e33 <setval_415>:
  401e33:	c7 07 81 ce 38 db    	movl   $0xdb38ce81,(%rdi)
  401e39:	c3                   	retq   

0000000000401e3a <getval_339>:
  401e3a:	b8 89 c2 00 c0       	mov    $0xc000c289,%eax
  401e3f:	c3                   	retq   

0000000000401e40 <setval_183>:
  401e40:	c7 07 ea 89 d1 c3    	movl   $0xc3d189ea,(%rdi)
  401e46:	c3                   	retq   

0000000000401e47 <setval_120>:
  401e47:	c7 07 48 89 e0 c2    	movl   $0xc2e08948,(%rdi)
  401e4d:	c3                   	retq   

0000000000401e4e <setval_359>:
  401e4e:	c7 07 55 89 c2 90    	movl   $0x90c28955,(%rdi)
  401e54:	c3                   	retq   

0000000000401e55 <addval_428>:
  401e55:	8d 87 89 ce 48 d2    	lea    -0x2db73177(%rdi),%eax
  401e5b:	c3                   	retq   

0000000000401e5c <setval_316>:
  401e5c:	c7 07 89 d1 c4 c0    	movl   $0xc0c4d189,(%rdi)
  401e62:	c3                   	retq   

0000000000401e63 <getval_478>:
  401e63:	b8 48 89 e0 c7       	mov    $0xc7e08948,%eax
  401e68:	c3                   	retq   

0000000000401e69 <end_farm>:
  401e69:	b8 01 00 00 00       	mov    $0x1,%eax
  401e6e:	c3                   	retq   

0000000000401e6f <save_char>:
  401e6f:	8b 05 cf 62 00 00    	mov    0x62cf(%rip),%eax        # 408144 <gets_cnt>
  401e75:	3d ff 03 00 00       	cmp    $0x3ff,%eax
  401e7a:	7f 49                	jg     401ec5 <save_char+0x56>
  401e7c:	89 f9                	mov    %edi,%ecx
  401e7e:	c0 e9 04             	shr    $0x4,%cl
  401e81:	8d 14 40             	lea    (%rax,%rax,2),%edx
  401e84:	83 e1 0f             	and    $0xf,%ecx
  401e87:	0f b6 b1 80 48 40 00 	movzbl 0x404880(%rcx),%esi
  401e8e:	48 63 ca             	movslq %edx,%rcx
  401e91:	40 88 b1 40 75 40 00 	mov    %sil,0x407540(%rcx)
  401e98:	8d 4a 01             	lea    0x1(%rdx),%ecx
  401e9b:	83 e7 0f             	and    $0xf,%edi
  401e9e:	0f b6 b7 80 48 40 00 	movzbl 0x404880(%rdi),%esi
  401ea5:	48 63 c9             	movslq %ecx,%rcx
  401ea8:	40 88 b1 40 75 40 00 	mov    %sil,0x407540(%rcx)
  401eaf:	83 c2 02             	add    $0x2,%edx
  401eb2:	48 63 d2             	movslq %edx,%rdx
  401eb5:	c6 82 40 75 40 00 20 	movb   $0x20,0x407540(%rdx)
  401ebc:	83 c0 01             	add    $0x1,%eax
  401ebf:	89 05 7f 62 00 00    	mov    %eax,0x627f(%rip)        # 408144 <gets_cnt>
  401ec5:	c3                   	retq   

0000000000401ec6 <save_term>:
  401ec6:	8b 05 78 62 00 00    	mov    0x6278(%rip),%eax        # 408144 <gets_cnt>
  401ecc:	8d 04 40             	lea    (%rax,%rax,2),%eax
  401ecf:	48 98                	cltq   
  401ed1:	c6 80 40 75 40 00 00 	movb   $0x0,0x407540(%rax)
  401ed8:	c3                   	retq   

0000000000401ed9 <check_fail>:
  401ed9:	48 83 ec 08          	sub    $0x8,%rsp
  401edd:	0f be 35 a8 55 00 00 	movsbl 0x55a8(%rip),%esi        # 40748c <target_prefix>
  401ee4:	b9 40 75 40 00       	mov    $0x407540,%ecx
  401ee9:	8b 15 31 56 00 00    	mov    0x5631(%rip),%edx        # 407520 <check_level>
  401eef:	bf bd 45 40 00       	mov    $0x4045bd,%edi
  401ef4:	b8 00 00 00 00       	mov    $0x0,%eax
  401ef9:	e8 c2 f1 ff ff       	callq  4010c0 <printf@plt>
  401efe:	bf 01 00 00 00       	mov    $0x1,%edi
  401f03:	e8 08 f3 ff ff       	callq  401210 <exit@plt>

0000000000401f08 <Gets>:
  401f08:	41 54                	push   %r12
  401f0a:	55                   	push   %rbp
  401f0b:	53                   	push   %rbx
  401f0c:	49 89 fc             	mov    %rdi,%r12
  401f0f:	c7 05 2b 62 00 00 00 	movl   $0x0,0x622b(%rip)        # 408144 <gets_cnt>
  401f16:	00 00 00 
  401f19:	48 89 fb             	mov    %rdi,%rbx
  401f1c:	eb 11                	jmp    401f2f <Gets+0x27>
  401f1e:	48 8d 6b 01          	lea    0x1(%rbx),%rbp
  401f22:	88 03                	mov    %al,(%rbx)
  401f24:	0f b6 f8             	movzbl %al,%edi
  401f27:	e8 43 ff ff ff       	callq  401e6f <save_char>
  401f2c:	48 89 eb             	mov    %rbp,%rbx
  401f2f:	48 8b 3d e2 55 00 00 	mov    0x55e2(%rip),%rdi        # 407518 <infile>
  401f36:	e8 f5 f2 ff ff       	callq  401230 <getc@plt>
  401f3b:	83 f8 ff             	cmp    $0xffffffff,%eax
  401f3e:	74 05                	je     401f45 <Gets+0x3d>
  401f40:	83 f8 0a             	cmp    $0xa,%eax
  401f43:	75 d9                	jne    401f1e <Gets+0x16>
  401f45:	c6 03 00             	movb   $0x0,(%rbx)
  401f48:	b8 00 00 00 00       	mov    $0x0,%eax
  401f4d:	e8 74 ff ff ff       	callq  401ec6 <save_term>
  401f52:	4c 89 e0             	mov    %r12,%rax
  401f55:	5b                   	pop    %rbx
  401f56:	5d                   	pop    %rbp
  401f57:	41 5c                	pop    %r12
  401f59:	c3                   	retq   

0000000000401f5a <notify_server>:
  401f5a:	83 3d cf 55 00 00 00 	cmpl   $0x0,0x55cf(%rip)        # 407530 <is_checker>
  401f61:	0f 85 93 01 00 00    	jne    4020fa <notify_server+0x1a0>
  401f67:	55                   	push   %rbp
  401f68:	53                   	push   %rbx
  401f69:	48 81 ec 08 40 00 00 	sub    $0x4008,%rsp
  401f70:	89 fb                	mov    %edi,%ebx
  401f72:	81 3d c8 61 00 00 9c 	cmpl   $0x1f9c,0x61c8(%rip)        # 408144 <gets_cnt>
  401f79:	1f 00 00 
  401f7c:	0f 8f ad 00 00 00    	jg     40202f <notify_server+0xd5>
  401f82:	44 0f be 0d 02 55 00 	movsbl 0x5502(%rip),%r9d        # 40748c <target_prefix>
  401f89:	00 
  401f8a:	83 3d f7 54 00 00 00 	cmpl   $0x0,0x54f7(%rip)        # 407488 <notify>
  401f91:	0f 84 b1 00 00 00    	je     402048 <notify_server+0xee>
  401f97:	44 8b 05 8a 55 00 00 	mov    0x558a(%rip),%r8d        # 407528 <authkey>
  401f9e:	85 db                	test   %ebx,%ebx
  401fa0:	0f 84 ad 00 00 00    	je     402053 <notify_server+0xf9>
  401fa6:	bd d3 45 40 00       	mov    $0x4045d3,%ebp
  401fab:	48 8d bc 24 00 20 00 	lea    0x2000(%rsp),%rdi
  401fb2:	00 
  401fb3:	68 40 75 40 00       	pushq  $0x407540
  401fb8:	56                   	push   %rsi
  401fb9:	48 89 e9             	mov    %rbp,%rcx
  401fbc:	8b 15 86 51 00 00    	mov    0x5186(%rip),%edx        # 407148 <target_id>
  401fc2:	be dd 45 40 00       	mov    $0x4045dd,%esi
  401fc7:	b8 00 00 00 00       	mov    $0x0,%eax
  401fcc:	e8 2f f2 ff ff       	callq  401200 <sprintf@plt>
  401fd1:	48 83 c4 10          	add    $0x10,%rsp
  401fd5:	83 3d ac 54 00 00 00 	cmpl   $0x0,0x54ac(%rip)        # 407488 <notify>
  401fdc:	0f 84 ab 00 00 00    	je     40208d <notify_server+0x133>
  401fe2:	85 db                	test   %ebx,%ebx
  401fe4:	0f 84 8f 00 00 00    	je     402079 <notify_server+0x11f>
  401fea:	48 8d 8c 24 00 20 00 	lea    0x2000(%rsp),%rcx
  401ff1:	00 
  401ff2:	49 89 e1             	mov    %rsp,%r9
  401ff5:	41 b8 00 00 00 00    	mov    $0x0,%r8d
  401ffb:	48 8b 15 4e 51 00 00 	mov    0x514e(%rip),%rdx        # 407150 <lab>
  402002:	48 8b 35 77 54 00 00 	mov    0x5477(%rip),%rsi        # 407480 <course>
  402009:	48 8b 3d 30 51 00 00 	mov    0x5130(%rip),%rdi        # 407140 <user_id>
  402010:	e8 ee 10 00 00       	callq  403103 <driver_post>
  402015:	85 c0                	test   %eax,%eax
  402017:	78 44                	js     40205d <notify_server+0x103>
  402019:	bf 78 42 40 00       	mov    $0x404278,%edi
  40201e:	e8 5d f0 ff ff       	callq  401080 <puts@plt>
  402023:	bf 05 46 40 00       	mov    $0x404605,%edi
  402028:	e8 53 f0 ff ff       	callq  401080 <puts@plt>
  40202d:	eb 54                	jmp    402083 <notify_server+0x129>
  40202f:	bf 48 42 40 00       	mov    $0x404248,%edi
  402034:	b8 00 00 00 00       	mov    $0x0,%eax
  402039:	e8 82 f0 ff ff       	callq  4010c0 <printf@plt>
  40203e:	bf 01 00 00 00       	mov    $0x1,%edi
  402043:	e8 c8 f1 ff ff       	callq  401210 <exit@plt>
  402048:	41 b8 ff ff ff ff    	mov    $0xffffffff,%r8d
  40204e:	e9 4b ff ff ff       	jmpq   401f9e <notify_server+0x44>
  402053:	bd d8 45 40 00       	mov    $0x4045d8,%ebp
  402058:	e9 4e ff ff ff       	jmpq   401fab <notify_server+0x51>
  40205d:	48 89 e6             	mov    %rsp,%rsi
  402060:	bf f9 45 40 00       	mov    $0x4045f9,%edi
  402065:	b8 00 00 00 00       	mov    $0x0,%eax
  40206a:	e8 51 f0 ff ff       	callq  4010c0 <printf@plt>
  40206f:	bf 01 00 00 00       	mov    $0x1,%edi
  402074:	e8 97 f1 ff ff       	callq  401210 <exit@plt>
  402079:	bf 0f 46 40 00       	mov    $0x40460f,%edi
  40207e:	e8 fd ef ff ff       	callq  401080 <puts@plt>
  402083:	48 81 c4 08 40 00 00 	add    $0x4008,%rsp
  40208a:	5b                   	pop    %rbx
  40208b:	5d                   	pop    %rbp
  40208c:	c3                   	retq   
  40208d:	48 89 ee             	mov    %rbp,%rsi
  402090:	bf b0 42 40 00       	mov    $0x4042b0,%edi
  402095:	b8 00 00 00 00       	mov    $0x0,%eax
  40209a:	e8 21 f0 ff ff       	callq  4010c0 <printf@plt>
  40209f:	48 8b 35 9a 50 00 00 	mov    0x509a(%rip),%rsi        # 407140 <user_id>
  4020a6:	bf 16 46 40 00       	mov    $0x404616,%edi
  4020ab:	b8 00 00 00 00       	mov    $0x0,%eax
  4020b0:	e8 0b f0 ff ff       	callq  4010c0 <printf@plt>
  4020b5:	48 8b 35 c4 53 00 00 	mov    0x53c4(%rip),%rsi        # 407480 <course>
  4020bc:	bf 23 46 40 00       	mov    $0x404623,%edi
  4020c1:	b8 00 00 00 00       	mov    $0x0,%eax
  4020c6:	e8 f5 ef ff ff       	callq  4010c0 <printf@plt>
  4020cb:	48 8b 35 7e 50 00 00 	mov    0x507e(%rip),%rsi        # 407150 <lab>
  4020d2:	bf 2f 46 40 00       	mov    $0x40462f,%edi
  4020d7:	b8 00 00 00 00       	mov    $0x0,%eax
  4020dc:	e8 df ef ff ff       	callq  4010c0 <printf@plt>
  4020e1:	48 8d b4 24 00 20 00 	lea    0x2000(%rsp),%rsi
  4020e8:	00 
  4020e9:	bf 38 46 40 00       	mov    $0x404638,%edi
  4020ee:	b8 00 00 00 00       	mov    $0x0,%eax
  4020f3:	e8 c8 ef ff ff       	callq  4010c0 <printf@plt>
  4020f8:	eb 89                	jmp    402083 <notify_server+0x129>
  4020fa:	c3                   	retq   

00000000004020fb <validate>:
  4020fb:	53                   	push   %rbx
  4020fc:	89 fb                	mov    %edi,%ebx
  4020fe:	83 3d 2b 54 00 00 00 	cmpl   $0x0,0x542b(%rip)        # 407530 <is_checker>
  402105:	74 60                	je     402167 <validate+0x6c>
  402107:	39 3d 17 54 00 00    	cmp    %edi,0x5417(%rip)        # 407524 <vlevel>
  40210d:	75 29                	jne    402138 <validate+0x3d>
  40210f:	8b 35 0b 54 00 00    	mov    0x540b(%rip),%esi        # 407520 <check_level>
  402115:	39 fe                	cmp    %edi,%esi
  402117:	75 33                	jne    40214c <validate+0x51>
  402119:	0f be 35 6c 53 00 00 	movsbl 0x536c(%rip),%esi        # 40748c <target_prefix>
  402120:	b9 40 75 40 00       	mov    $0x407540,%ecx
  402125:	89 fa                	mov    %edi,%edx
  402127:	bf 62 46 40 00       	mov    $0x404662,%edi
  40212c:	b8 00 00 00 00       	mov    $0x0,%eax
  402131:	e8 8a ef ff ff       	callq  4010c0 <printf@plt>
  402136:	5b                   	pop    %rbx
  402137:	c3                   	retq   
  402138:	bf 44 46 40 00       	mov    $0x404644,%edi
  40213d:	e8 3e ef ff ff       	callq  401080 <puts@plt>
  402142:	b8 00 00 00 00       	mov    $0x0,%eax
  402147:	e8 8d fd ff ff       	callq  401ed9 <check_fail>
  40214c:	89 fa                	mov    %edi,%edx
  40214e:	bf d8 42 40 00       	mov    $0x4042d8,%edi
  402153:	b8 00 00 00 00       	mov    $0x0,%eax
  402158:	e8 63 ef ff ff       	callq  4010c0 <printf@plt>
  40215d:	b8 00 00 00 00       	mov    $0x0,%eax
  402162:	e8 72 fd ff ff       	callq  401ed9 <check_fail>
  402167:	39 3d b7 53 00 00    	cmp    %edi,0x53b7(%rip)        # 407524 <vlevel>
  40216d:	74 18                	je     402187 <validate+0x8c>
  40216f:	bf 44 46 40 00       	mov    $0x404644,%edi
  402174:	e8 07 ef ff ff       	callq  401080 <puts@plt>
  402179:	89 de                	mov    %ebx,%esi
  40217b:	bf 00 00 00 00       	mov    $0x0,%edi
  402180:	e8 d5 fd ff ff       	callq  401f5a <notify_server>
  402185:	eb af                	jmp    402136 <validate+0x3b>
  402187:	0f be 15 fe 52 00 00 	movsbl 0x52fe(%rip),%edx        # 40748c <target_prefix>
  40218e:	89 fe                	mov    %edi,%esi
  402190:	bf 00 43 40 00       	mov    $0x404300,%edi
  402195:	b8 00 00 00 00       	mov    $0x0,%eax
  40219a:	e8 21 ef ff ff       	callq  4010c0 <printf@plt>
  40219f:	89 de                	mov    %ebx,%esi
  4021a1:	bf 01 00 00 00       	mov    $0x1,%edi
  4021a6:	e8 af fd ff ff       	callq  401f5a <notify_server>
  4021ab:	eb 89                	jmp    402136 <validate+0x3b>

00000000004021ad <fail>:
  4021ad:	48 83 ec 08          	sub    $0x8,%rsp
  4021b1:	83 3d 78 53 00 00 00 	cmpl   $0x0,0x5378(%rip)        # 407530 <is_checker>
  4021b8:	75 11                	jne    4021cb <fail+0x1e>
  4021ba:	89 fe                	mov    %edi,%esi
  4021bc:	bf 00 00 00 00       	mov    $0x0,%edi
  4021c1:	e8 94 fd ff ff       	callq  401f5a <notify_server>
  4021c6:	48 83 c4 08          	add    $0x8,%rsp
  4021ca:	c3                   	retq   
  4021cb:	b8 00 00 00 00       	mov    $0x0,%eax
  4021d0:	e8 04 fd ff ff       	callq  401ed9 <check_fail>

00000000004021d5 <bushandler>:
  4021d5:	48 83 ec 08          	sub    $0x8,%rsp
  4021d9:	83 3d 50 53 00 00 00 	cmpl   $0x0,0x5350(%rip)        # 407530 <is_checker>
  4021e0:	74 14                	je     4021f6 <bushandler+0x21>
  4021e2:	bf 77 46 40 00       	mov    $0x404677,%edi
  4021e7:	e8 94 ee ff ff       	callq  401080 <puts@plt>
  4021ec:	b8 00 00 00 00       	mov    $0x0,%eax
  4021f1:	e8 e3 fc ff ff       	callq  401ed9 <check_fail>
  4021f6:	bf 38 43 40 00       	mov    $0x404338,%edi
  4021fb:	e8 80 ee ff ff       	callq  401080 <puts@plt>
  402200:	bf 81 46 40 00       	mov    $0x404681,%edi
  402205:	e8 76 ee ff ff       	callq  401080 <puts@plt>
  40220a:	be 00 00 00 00       	mov    $0x0,%esi
  40220f:	bf 00 00 00 00       	mov    $0x0,%edi
  402214:	e8 41 fd ff ff       	callq  401f5a <notify_server>
  402219:	bf 01 00 00 00       	mov    $0x1,%edi
  40221e:	e8 ed ef ff ff       	callq  401210 <exit@plt>

0000000000402223 <seghandler>:
  402223:	48 83 ec 08          	sub    $0x8,%rsp
  402227:	83 3d 02 53 00 00 00 	cmpl   $0x0,0x5302(%rip)        # 407530 <is_checker>
  40222e:	74 14                	je     402244 <seghandler+0x21>
  402230:	bf 97 46 40 00       	mov    $0x404697,%edi
  402235:	e8 46 ee ff ff       	callq  401080 <puts@plt>
  40223a:	b8 00 00 00 00       	mov    $0x0,%eax
  40223f:	e8 95 fc ff ff       	callq  401ed9 <check_fail>
  402244:	bf 58 43 40 00       	mov    $0x404358,%edi
  402249:	e8 32 ee ff ff       	callq  401080 <puts@plt>
  40224e:	bf 81 46 40 00       	mov    $0x404681,%edi
  402253:	e8 28 ee ff ff       	callq  401080 <puts@plt>
  402258:	be 00 00 00 00       	mov    $0x0,%esi
  40225d:	bf 00 00 00 00       	mov    $0x0,%edi
  402262:	e8 f3 fc ff ff       	callq  401f5a <notify_server>
  402267:	bf 01 00 00 00       	mov    $0x1,%edi
  40226c:	e8 9f ef ff ff       	callq  401210 <exit@plt>

0000000000402271 <illegalhandler>:
  402271:	48 83 ec 08          	sub    $0x8,%rsp
  402275:	83 3d b4 52 00 00 00 	cmpl   $0x0,0x52b4(%rip)        # 407530 <is_checker>
  40227c:	74 14                	je     402292 <illegalhandler+0x21>
  40227e:	bf aa 46 40 00       	mov    $0x4046aa,%edi
  402283:	e8 f8 ed ff ff       	callq  401080 <puts@plt>
  402288:	b8 00 00 00 00       	mov    $0x0,%eax
  40228d:	e8 47 fc ff ff       	callq  401ed9 <check_fail>
  402292:	bf 80 43 40 00       	mov    $0x404380,%edi
  402297:	e8 e4 ed ff ff       	callq  401080 <puts@plt>
  40229c:	bf 81 46 40 00       	mov    $0x404681,%edi
  4022a1:	e8 da ed ff ff       	callq  401080 <puts@plt>
  4022a6:	be 00 00 00 00       	mov    $0x0,%esi
  4022ab:	bf 00 00 00 00       	mov    $0x0,%edi
  4022b0:	e8 a5 fc ff ff       	callq  401f5a <notify_server>
  4022b5:	bf 01 00 00 00       	mov    $0x1,%edi
  4022ba:	e8 51 ef ff ff       	callq  401210 <exit@plt>

00000000004022bf <sigalrmhandler>:
  4022bf:	48 83 ec 08          	sub    $0x8,%rsp
  4022c3:	83 3d 66 52 00 00 00 	cmpl   $0x0,0x5266(%rip)        # 407530 <is_checker>
  4022ca:	74 14                	je     4022e0 <sigalrmhandler+0x21>
  4022cc:	bf be 46 40 00       	mov    $0x4046be,%edi
  4022d1:	e8 aa ed ff ff       	callq  401080 <puts@plt>
  4022d6:	b8 00 00 00 00       	mov    $0x0,%eax
  4022db:	e8 f9 fb ff ff       	callq  401ed9 <check_fail>
  4022e0:	be 05 00 00 00       	mov    $0x5,%esi
  4022e5:	bf b0 43 40 00       	mov    $0x4043b0,%edi
  4022ea:	b8 00 00 00 00       	mov    $0x0,%eax
  4022ef:	e8 cc ed ff ff       	callq  4010c0 <printf@plt>
  4022f4:	be 00 00 00 00       	mov    $0x0,%esi
  4022f9:	bf 00 00 00 00       	mov    $0x0,%edi
  4022fe:	e8 57 fc ff ff       	callq  401f5a <notify_server>
  402303:	bf 01 00 00 00       	mov    $0x1,%edi
  402308:	e8 03 ef ff ff       	callq  401210 <exit@plt>

000000000040230d <launch>:
  40230d:	55                   	push   %rbp
  40230e:	48 89 e5             	mov    %rsp,%rbp
  402311:	48 89 fa             	mov    %rdi,%rdx
  402314:	48 8d 47 17          	lea    0x17(%rdi),%rax
  402318:	48 83 e0 f0          	and    $0xfffffffffffffff0,%rax
  40231c:	48 29 c4             	sub    %rax,%rsp
  40231f:	48 8d 7c 24 0f       	lea    0xf(%rsp),%rdi
  402324:	48 83 e7 f0          	and    $0xfffffffffffffff0,%rdi
  402328:	be f4 00 00 00       	mov    $0xf4,%esi
  40232d:	e8 9e ed ff ff       	callq  4010d0 <memset@plt>
  402332:	48 8b 05 67 51 00 00 	mov    0x5167(%rip),%rax        # 4074a0 <stdin@@GLIBC_2.2.5>
  402339:	48 39 05 d8 51 00 00 	cmp    %rax,0x51d8(%rip)        # 407518 <infile>
  402340:	74 29                	je     40236b <launch+0x5e>
  402342:	c7 05 d8 51 00 00 00 	movl   $0x0,0x51d8(%rip)        # 407524 <vlevel>
  402349:	00 00 00 
  40234c:	b8 00 00 00 00       	mov    $0x0,%eax
  402351:	e8 d4 f9 ff ff       	callq  401d2a <test>
  402356:	83 3d d3 51 00 00 00 	cmpl   $0x0,0x51d3(%rip)        # 407530 <is_checker>
  40235d:	75 1d                	jne    40237c <launch+0x6f>
  40235f:	bf de 46 40 00       	mov    $0x4046de,%edi
  402364:	e8 17 ed ff ff       	callq  401080 <puts@plt>
  402369:	c9                   	leaveq 
  40236a:	c3                   	retq   
  40236b:	bf c6 46 40 00       	mov    $0x4046c6,%edi
  402370:	b8 00 00 00 00       	mov    $0x0,%eax
  402375:	e8 46 ed ff ff       	callq  4010c0 <printf@plt>
  40237a:	eb c6                	jmp    402342 <launch+0x35>
  40237c:	bf d3 46 40 00       	mov    $0x4046d3,%edi
  402381:	e8 fa ec ff ff       	callq  401080 <puts@plt>
  402386:	b8 00 00 00 00       	mov    $0x0,%eax
  40238b:	e8 49 fb ff ff       	callq  401ed9 <check_fail>

0000000000402390 <stable_launch>:
  402390:	53                   	push   %rbx
  402391:	48 89 3d 78 51 00 00 	mov    %rdi,0x5178(%rip)        # 407510 <global_offset>
  402398:	41 b9 00 00 00 00    	mov    $0x0,%r9d
  40239e:	41 b8 00 00 00 00    	mov    $0x0,%r8d
  4023a4:	b9 32 01 00 00       	mov    $0x132,%ecx
  4023a9:	ba 07 00 00 00       	mov    $0x7,%edx
  4023ae:	be 00 00 10 00       	mov    $0x100000,%esi
  4023b3:	bf 00 60 58 55       	mov    $0x55586000,%edi
  4023b8:	e8 f3 ec ff ff       	callq  4010b0 <mmap@plt>
  4023bd:	48 89 c3             	mov    %rax,%rbx
  4023c0:	48 3d 00 60 58 55    	cmp    $0x55586000,%rax
  4023c6:	75 43                	jne    40240b <stable_launch+0x7b>
  4023c8:	48 8d 90 f8 ff 0f 00 	lea    0xffff8(%rax),%rdx
  4023cf:	48 89 15 32 51 00 00 	mov    %rdx,0x5132(%rip)        # 407508 <stack_top>
  4023d6:	48 89 e0             	mov    %rsp,%rax
  4023d9:	48 89 d4             	mov    %rdx,%rsp
  4023dc:	48 89 c2             	mov    %rax,%rdx
  4023df:	48 89 15 1a 51 00 00 	mov    %rdx,0x511a(%rip)        # 407500 <global_save_stack>
  4023e6:	48 8b 3d 23 51 00 00 	mov    0x5123(%rip),%rdi        # 407510 <global_offset>
  4023ed:	e8 1b ff ff ff       	callq  40230d <launch>
  4023f2:	48 8b 05 07 51 00 00 	mov    0x5107(%rip),%rax        # 407500 <global_save_stack>
  4023f9:	48 89 c4             	mov    %rax,%rsp
  4023fc:	be 00 00 10 00       	mov    $0x100000,%esi
  402401:	48 89 df             	mov    %rbx,%rdi
  402404:	e8 97 ed ff ff       	callq  4011a0 <munmap@plt>
  402409:	5b                   	pop    %rbx
  40240a:	c3                   	retq   
  40240b:	be 00 00 10 00       	mov    $0x100000,%esi
  402410:	48 89 c7             	mov    %rax,%rdi
  402413:	e8 88 ed ff ff       	callq  4011a0 <munmap@plt>
  402418:	ba 00 60 58 55       	mov    $0x55586000,%edx
  40241d:	be e8 43 40 00       	mov    $0x4043e8,%esi
  402422:	48 8b 3d b7 50 00 00 	mov    0x50b7(%rip),%rdi        # 4074e0 <stderr@@GLIBC_2.2.5>
  402429:	b8 00 00 00 00       	mov    $0x0,%eax
  40242e:	e8 0d ed ff ff       	callq  401140 <fprintf@plt>
  402433:	bf 01 00 00 00       	mov    $0x1,%edi
  402438:	e8 d3 ed ff ff       	callq  401210 <exit@plt>
  40243d:	0f 1f 00             	nopl   (%rax)

0000000000402440 <rio_readinitb>:
  402440:	89 37                	mov    %esi,(%rdi)
  402442:	c7 47 04 00 00 00 00 	movl   $0x0,0x4(%rdi)
  402449:	48 8d 47 10          	lea    0x10(%rdi),%rax
  40244d:	48 89 47 08          	mov    %rax,0x8(%rdi)
  402451:	c3                   	retq   

0000000000402452 <sigalrm_handler>:
  402452:	48 83 ec 08          	sub    $0x8,%rsp
  402456:	ba 00 00 00 00       	mov    $0x0,%edx
  40245b:	be 10 44 40 00       	mov    $0x404410,%esi
  402460:	48 8b 3d 79 50 00 00 	mov    0x5079(%rip),%rdi        # 4074e0 <stderr@@GLIBC_2.2.5>
  402467:	b8 00 00 00 00       	mov    $0x0,%eax
  40246c:	e8 cf ec ff ff       	callq  401140 <fprintf@plt>
  402471:	bf 01 00 00 00       	mov    $0x1,%edi
  402476:	e8 95 ed ff ff       	callq  401210 <exit@plt>

000000000040247b <urlencode>:
  40247b:	41 54                	push   %r12
  40247d:	55                   	push   %rbp
  40247e:	53                   	push   %rbx
  40247f:	48 83 ec 10          	sub    $0x10,%rsp
  402483:	48 89 fb             	mov    %rdi,%rbx
  402486:	48 89 f5             	mov    %rsi,%rbp
  402489:	e8 12 ec ff ff       	callq  4010a0 <strlen@plt>
  40248e:	eb 3e                	jmp    4024ce <urlencode+0x53>
  402490:	66 66 2e 0f 1f 84 00 	data16 nopw %cs:0x0(%rax,%rax,1)
  402497:	00 00 00 00 
  40249b:	66 66 2e 0f 1f 84 00 	data16 nopw %cs:0x0(%rax,%rax,1)
  4024a2:	00 00 00 00 
  4024a6:	66 66 2e 0f 1f 84 00 	data16 nopw %cs:0x0(%rax,%rax,1)
  4024ad:	00 00 00 00 
  4024b1:	66 66 2e 0f 1f 84 00 	data16 nopw %cs:0x0(%rax,%rax,1)
  4024b8:	00 00 00 00 
  4024bc:	0f 1f 40 00          	nopl   0x0(%rax)
  4024c0:	88 55 00             	mov    %dl,0x0(%rbp)
  4024c3:	48 8d 6d 01          	lea    0x1(%rbp),%rbp
  4024c7:	48 83 c3 01          	add    $0x1,%rbx
  4024cb:	44 89 e0             	mov    %r12d,%eax
  4024ce:	44 8d 60 ff          	lea    -0x1(%rax),%r12d
  4024d2:	85 c0                	test   %eax,%eax
  4024d4:	0f 84 93 00 00 00    	je     40256d <urlencode+0xf2>
  4024da:	0f b6 13             	movzbl (%rbx),%edx
  4024dd:	80 fa 2a             	cmp    $0x2a,%dl
  4024e0:	0f 94 c0             	sete   %al
  4024e3:	80 fa 2d             	cmp    $0x2d,%dl
  4024e6:	0f 94 c1             	sete   %cl
  4024e9:	08 c8                	or     %cl,%al
  4024eb:	75 d3                	jne    4024c0 <urlencode+0x45>
  4024ed:	80 fa 2e             	cmp    $0x2e,%dl
  4024f0:	74 ce                	je     4024c0 <urlencode+0x45>
  4024f2:	80 fa 5f             	cmp    $0x5f,%dl
  4024f5:	74 c9                	je     4024c0 <urlencode+0x45>
  4024f7:	8d 42 d0             	lea    -0x30(%rdx),%eax
  4024fa:	3c 09                	cmp    $0x9,%al
  4024fc:	76 c2                	jbe    4024c0 <urlencode+0x45>
  4024fe:	8d 42 bf             	lea    -0x41(%rdx),%eax
  402501:	3c 19                	cmp    $0x19,%al
  402503:	76 bb                	jbe    4024c0 <urlencode+0x45>
  402505:	8d 42 9f             	lea    -0x61(%rdx),%eax
  402508:	3c 19                	cmp    $0x19,%al
  40250a:	76 b4                	jbe    4024c0 <urlencode+0x45>
  40250c:	80 fa 20             	cmp    $0x20,%dl
  40250f:	74 4a                	je     40255b <urlencode+0xe0>
  402511:	8d 42 e0             	lea    -0x20(%rdx),%eax
  402514:	3c 5f                	cmp    $0x5f,%al
  402516:	0f 96 c0             	setbe  %al
  402519:	80 fa 09             	cmp    $0x9,%dl
  40251c:	0f 94 c1             	sete   %cl
  40251f:	08 c8                	or     %cl,%al
  402521:	74 45                	je     402568 <urlencode+0xed>
  402523:	0f b6 d2             	movzbl %dl,%edx
  402526:	48 8d 7c 24 08       	lea    0x8(%rsp),%rdi
  40252b:	be ec 46 40 00       	mov    $0x4046ec,%esi
  402530:	b8 00 00 00 00       	mov    $0x0,%eax
  402535:	e8 c6 ec ff ff       	callq  401200 <sprintf@plt>
  40253a:	0f b6 44 24 08       	movzbl 0x8(%rsp),%eax
  40253f:	88 45 00             	mov    %al,0x0(%rbp)
  402542:	0f b6 44 24 09       	movzbl 0x9(%rsp),%eax
  402547:	88 45 01             	mov    %al,0x1(%rbp)
  40254a:	0f b6 44 24 0a       	movzbl 0xa(%rsp),%eax
  40254f:	88 45 02             	mov    %al,0x2(%rbp)
  402552:	48 8d 6d 03          	lea    0x3(%rbp),%rbp
  402556:	e9 6c ff ff ff       	jmpq   4024c7 <urlencode+0x4c>
  40255b:	c6 45 00 2b          	movb   $0x2b,0x0(%rbp)
  40255f:	48 8d 6d 01          	lea    0x1(%rbp),%rbp
  402563:	e9 5f ff ff ff       	jmpq   4024c7 <urlencode+0x4c>
  402568:	b8 ff ff ff ff       	mov    $0xffffffff,%eax
  40256d:	48 83 c4 10          	add    $0x10,%rsp
  402571:	5b                   	pop    %rbx
  402572:	5d                   	pop    %rbp
  402573:	41 5c                	pop    %r12
  402575:	c3                   	retq   

0000000000402576 <rio_writen>:
  402576:	41 55                	push   %r13
  402578:	41 54                	push   %r12
  40257a:	55                   	push   %rbp
  40257b:	53                   	push   %rbx
  40257c:	48 83 ec 08          	sub    $0x8,%rsp
  402580:	41 89 fc             	mov    %edi,%r12d
  402583:	48 89 f5             	mov    %rsi,%rbp
  402586:	49 89 d5             	mov    %rdx,%r13
  402589:	48 89 d3             	mov    %rdx,%rbx
  40258c:	eb 06                	jmp    402594 <rio_writen+0x1e>
  40258e:	48 29 c3             	sub    %rax,%rbx
  402591:	48 01 c5             	add    %rax,%rbp
  402594:	48 85 db             	test   %rbx,%rbx
  402597:	74 24                	je     4025bd <rio_writen+0x47>
  402599:	48 89 da             	mov    %rbx,%rdx
  40259c:	48 89 ee             	mov    %rbp,%rsi
  40259f:	44 89 e7             	mov    %r12d,%edi
  4025a2:	e8 e9 ea ff ff       	callq  401090 <write@plt>
  4025a7:	48 85 c0             	test   %rax,%rax
  4025aa:	7f e2                	jg     40258e <rio_writen+0x18>
  4025ac:	e8 8f ea ff ff       	callq  401040 <__errno_location@plt>
  4025b1:	83 38 04             	cmpl   $0x4,(%rax)
  4025b4:	75 15                	jne    4025cb <rio_writen+0x55>
  4025b6:	b8 00 00 00 00       	mov    $0x0,%eax
  4025bb:	eb d1                	jmp    40258e <rio_writen+0x18>
  4025bd:	4c 89 e8             	mov    %r13,%rax
  4025c0:	48 83 c4 08          	add    $0x8,%rsp
  4025c4:	5b                   	pop    %rbx
  4025c5:	5d                   	pop    %rbp
  4025c6:	41 5c                	pop    %r12
  4025c8:	41 5d                	pop    %r13
  4025ca:	c3                   	retq   
  4025cb:	48 c7 c0 ff ff ff ff 	mov    $0xffffffffffffffff,%rax
  4025d2:	eb ec                	jmp    4025c0 <rio_writen+0x4a>

00000000004025d4 <rio_read>:
  4025d4:	41 55                	push   %r13
  4025d6:	41 54                	push   %r12
  4025d8:	55                   	push   %rbp
  4025d9:	53                   	push   %rbx
  4025da:	48 83 ec 08          	sub    $0x8,%rsp
  4025de:	48 89 fb             	mov    %rdi,%rbx
  4025e1:	49 89 f5             	mov    %rsi,%r13
  4025e4:	49 89 d4             	mov    %rdx,%r12
  4025e7:	eb 0a                	jmp    4025f3 <rio_read+0x1f>
  4025e9:	e8 52 ea ff ff       	callq  401040 <__errno_location@plt>
  4025ee:	83 38 04             	cmpl   $0x4,(%rax)
  4025f1:	75 5f                	jne    402652 <rio_read+0x7e>
  4025f3:	8b 6b 04             	mov    0x4(%rbx),%ebp
  4025f6:	85 ed                	test   %ebp,%ebp
  4025f8:	7f 22                	jg     40261c <rio_read+0x48>
  4025fa:	48 8d 6b 10          	lea    0x10(%rbx),%rbp
  4025fe:	8b 3b                	mov    (%rbx),%edi
  402600:	ba 00 20 00 00       	mov    $0x2000,%edx
  402605:	48 89 ee             	mov    %rbp,%rsi
  402608:	e8 f3 ea ff ff       	callq  401100 <read@plt>
  40260d:	89 43 04             	mov    %eax,0x4(%rbx)
  402610:	85 c0                	test   %eax,%eax
  402612:	78 d5                	js     4025e9 <rio_read+0x15>
  402614:	74 45                	je     40265b <rio_read+0x87>
  402616:	48 89 6b 08          	mov    %rbp,0x8(%rbx)
  40261a:	eb d7                	jmp    4025f3 <rio_read+0x1f>
  40261c:	89 e8                	mov    %ebp,%eax
  40261e:	4c 39 e0             	cmp    %r12,%rax
  402621:	72 03                	jb     402626 <rio_read+0x52>
  402623:	44 89 e5             	mov    %r12d,%ebp
  402626:	4c 63 e5             	movslq %ebp,%r12
  402629:	48 8b 73 08          	mov    0x8(%rbx),%rsi
  40262d:	4c 89 e2             	mov    %r12,%rdx
  402630:	4c 89 ef             	mov    %r13,%rdi
  402633:	e8 28 eb ff ff       	callq  401160 <memcpy@plt>
  402638:	4c 01 63 08          	add    %r12,0x8(%rbx)
  40263c:	8b 43 04             	mov    0x4(%rbx),%eax
  40263f:	29 e8                	sub    %ebp,%eax
  402641:	89 43 04             	mov    %eax,0x4(%rbx)
  402644:	4c 89 e0             	mov    %r12,%rax
  402647:	48 83 c4 08          	add    $0x8,%rsp
  40264b:	5b                   	pop    %rbx
  40264c:	5d                   	pop    %rbp
  40264d:	41 5c                	pop    %r12
  40264f:	41 5d                	pop    %r13
  402651:	c3                   	retq   
  402652:	48 c7 c0 ff ff ff ff 	mov    $0xffffffffffffffff,%rax
  402659:	eb ec                	jmp    402647 <rio_read+0x73>
  40265b:	b8 00 00 00 00       	mov    $0x0,%eax
  402660:	eb e5                	jmp    402647 <rio_read+0x73>

0000000000402662 <rio_readlineb>:
  402662:	41 55                	push   %r13
  402664:	41 54                	push   %r12
  402666:	55                   	push   %rbp
  402667:	53                   	push   %rbx
  402668:	48 83 ec 18          	sub    $0x18,%rsp
  40266c:	49 89 fd             	mov    %rdi,%r13
  40266f:	48 89 f5             	mov    %rsi,%rbp
  402672:	49 89 d4             	mov    %rdx,%r12
  402675:	bb 01 00 00 00       	mov    $0x1,%ebx
  40267a:	eb 18                	jmp    402694 <rio_readlineb+0x32>
  40267c:	85 c0                	test   %eax,%eax
  40267e:	75 55                	jne    4026d5 <rio_readlineb+0x73>
  402680:	48 83 fb 01          	cmp    $0x1,%rbx
  402684:	75 3d                	jne    4026c3 <rio_readlineb+0x61>
  402686:	b8 00 00 00 00       	mov    $0x0,%eax
  40268b:	eb 3d                	jmp    4026ca <rio_readlineb+0x68>
  40268d:	48 83 c3 01          	add    $0x1,%rbx
  402691:	48 89 d5             	mov    %rdx,%rbp
  402694:	4c 39 e3             	cmp    %r12,%rbx
  402697:	73 2a                	jae    4026c3 <rio_readlineb+0x61>
  402699:	48 8d 74 24 0f       	lea    0xf(%rsp),%rsi
  40269e:	ba 01 00 00 00       	mov    $0x1,%edx
  4026a3:	4c 89 ef             	mov    %r13,%rdi
  4026a6:	e8 29 ff ff ff       	callq  4025d4 <rio_read>
  4026ab:	83 f8 01             	cmp    $0x1,%eax
  4026ae:	75 cc                	jne    40267c <rio_readlineb+0x1a>
  4026b0:	48 8d 55 01          	lea    0x1(%rbp),%rdx
  4026b4:	0f b6 44 24 0f       	movzbl 0xf(%rsp),%eax
  4026b9:	88 45 00             	mov    %al,0x0(%rbp)
  4026bc:	3c 0a                	cmp    $0xa,%al
  4026be:	75 cd                	jne    40268d <rio_readlineb+0x2b>
  4026c0:	48 89 d5             	mov    %rdx,%rbp
  4026c3:	c6 45 00 00          	movb   $0x0,0x0(%rbp)
  4026c7:	48 89 d8             	mov    %rbx,%rax
  4026ca:	48 83 c4 18          	add    $0x18,%rsp
  4026ce:	5b                   	pop    %rbx
  4026cf:	5d                   	pop    %rbp
  4026d0:	41 5c                	pop    %r12
  4026d2:	41 5d                	pop    %r13
  4026d4:	c3                   	retq   
  4026d5:	48 c7 c0 ff ff ff ff 	mov    $0xffffffffffffffff,%rax
  4026dc:	eb ec                	jmp    4026ca <rio_readlineb+0x68>

00000000004026de <submitr>:
  4026de:	41 57                	push   %r15
  4026e0:	41 56                	push   %r14
  4026e2:	41 55                	push   %r13
  4026e4:	41 54                	push   %r12
  4026e6:	55                   	push   %rbp
  4026e7:	53                   	push   %rbx
  4026e8:	48 81 ec 58 c0 00 00 	sub    $0xc058,%rsp
  4026ef:	48 89 fd             	mov    %rdi,%rbp
  4026f2:	41 89 f7             	mov    %esi,%r15d
  4026f5:	49 89 d5             	mov    %rdx,%r13
  4026f8:	48 89 4c 24 08       	mov    %rcx,0x8(%rsp)
  4026fd:	4c 89 c3             	mov    %r8,%rbx
  402700:	4c 89 44 24 10       	mov    %r8,0x10(%rsp)
  402705:	4d 89 cc             	mov    %r9,%r12
  402708:	4c 8b b4 24 90 c0 00 	mov    0xc090(%rsp),%r14
  40270f:	00 
  402710:	c7 84 24 2c 20 00 00 	movl   $0x0,0x202c(%rsp)
  402717:	00 00 00 00 
  40271b:	bf 38 44 40 00       	mov    $0x404438,%edi
  402720:	e8 5b e9 ff ff       	callq  401080 <puts@plt>
  402725:	48 89 ee             	mov    %rbp,%rsi
  402728:	bf f3 46 40 00       	mov    $0x4046f3,%edi
  40272d:	b8 00 00 00 00       	mov    $0x0,%eax
  402732:	e8 89 e9 ff ff       	callq  4010c0 <printf@plt>
  402737:	44 89 fe             	mov    %r15d,%esi
  40273a:	bf 01 47 40 00       	mov    $0x404701,%edi
  40273f:	b8 00 00 00 00       	mov    $0x0,%eax
  402744:	e8 77 e9 ff ff       	callq  4010c0 <printf@plt>
  402749:	4c 89 ee             	mov    %r13,%rsi
  40274c:	bf 0b 47 40 00       	mov    $0x40470b,%edi
  402751:	b8 00 00 00 00       	mov    $0x0,%eax
  402756:	e8 65 e9 ff ff       	callq  4010c0 <printf@plt>
  40275b:	48 8b 74 24 08       	mov    0x8(%rsp),%rsi
  402760:	bf 17 47 40 00       	mov    $0x404717,%edi
  402765:	b8 00 00 00 00       	mov    $0x0,%eax
  40276a:	e8 51 e9 ff ff       	callq  4010c0 <printf@plt>
  40276f:	48 89 de             	mov    %rbx,%rsi
  402772:	bf 23 47 40 00       	mov    $0x404723,%edi
  402777:	b8 00 00 00 00       	mov    $0x0,%eax
  40277c:	e8 3f e9 ff ff       	callq  4010c0 <printf@plt>
  402781:	4c 89 e6             	mov    %r12,%rsi
  402784:	bf 2c 47 40 00       	mov    $0x40472c,%edi
  402789:	b8 00 00 00 00       	mov    $0x0,%eax
  40278e:	e8 2d e9 ff ff       	callq  4010c0 <printf@plt>
  402793:	ba 00 00 00 00       	mov    $0x0,%edx
  402798:	be 01 00 00 00       	mov    $0x1,%esi
  40279d:	bf 02 00 00 00       	mov    $0x2,%edi
  4027a2:	e8 99 ea ff ff       	callq  401240 <socket@plt>
  4027a7:	85 c0                	test   %eax,%eax
  4027a9:	0f 88 06 02 00 00    	js     4029b5 <submitr+0x2d7>
  4027af:	89 c3                	mov    %eax,%ebx
  4027b1:	48 89 ef             	mov    %rbp,%rdi
  4027b4:	e8 77 e9 ff ff       	callq  401130 <gethostbyname@plt>
  4027b9:	48 85 c0             	test   %rax,%rax
  4027bc:	0f 84 42 02 00 00    	je     402a04 <submitr+0x326>
  4027c2:	66 0f ef c0          	pxor   %xmm0,%xmm0
  4027c6:	0f 29 84 24 40 c0 00 	movaps %xmm0,0xc040(%rsp)
  4027cd:	00 
  4027ce:	66 c7 84 24 40 c0 00 	movw   $0x2,0xc040(%rsp)
  4027d5:	00 02 00 
  4027d8:	48 8b 48 18          	mov    0x18(%rax),%rcx
  4027dc:	48 63 50 14          	movslq 0x14(%rax),%rdx
  4027e0:	48 8b 31             	mov    (%rcx),%rsi
  4027e3:	48 8d bc 24 44 c0 00 	lea    0xc044(%rsp),%rdi
  4027ea:	00 
  4027eb:	e8 c0 e9 ff ff       	callq  4011b0 <memmove@plt>
  4027f0:	66 41 c1 c7 08       	rol    $0x8,%r15w
  4027f5:	66 44 89 bc 24 42 c0 	mov    %r15w,0xc042(%rsp)
  4027fc:	00 00 
  4027fe:	ba 10 00 00 00       	mov    $0x10,%edx
  402803:	48 8d b4 24 40 c0 00 	lea    0xc040(%rsp),%rsi
  40280a:	00 
  40280b:	89 df                	mov    %ebx,%edi
  40280d:	e8 0e ea ff ff       	callq  401220 <connect@plt>
  402812:	85 c0                	test   %eax,%eax
  402814:	0f 88 4e 02 00 00    	js     402a68 <submitr+0x38a>
  40281a:	4c 89 e7             	mov    %r12,%rdi
  40281d:	e8 7e e8 ff ff       	callq  4010a0 <strlen@plt>
  402822:	48 89 44 24 18       	mov    %rax,0x18(%rsp)
  402827:	4c 89 ef             	mov    %r13,%rdi
  40282a:	e8 71 e8 ff ff       	callq  4010a0 <strlen@plt>
  40282f:	49 89 c7             	mov    %rax,%r15
  402832:	48 8b 7c 24 08       	mov    0x8(%rsp),%rdi
  402837:	e8 64 e8 ff ff       	callq  4010a0 <strlen@plt>
  40283c:	49 01 c7             	add    %rax,%r15
  40283f:	48 8b 7c 24 10       	mov    0x10(%rsp),%rdi
  402844:	e8 57 e8 ff ff       	callq  4010a0 <strlen@plt>
  402849:	49 01 c7             	add    %rax,%r15
  40284c:	48 8b 44 24 18       	mov    0x18(%rsp),%rax
  402851:	48 8d 04 40          	lea    (%rax,%rax,2),%rax
  402855:	49 8d 84 07 80 00 00 	lea    0x80(%r15,%rax,1),%rax
  40285c:	00 
  40285d:	48 3d 00 20 00 00    	cmp    $0x2000,%rax
  402863:	0f 87 55 02 00 00    	ja     402abe <submitr+0x3e0>
  402869:	48 8d b4 24 30 40 00 	lea    0x4030(%rsp),%rsi
  402870:	00 
  402871:	b9 00 04 00 00       	mov    $0x400,%ecx
  402876:	b8 00 00 00 00       	mov    $0x0,%eax
  40287b:	48 89 f7             	mov    %rsi,%rdi
  40287e:	f3 48 ab             	rep stos %rax,%es:(%rdi)
  402881:	4c 89 e7             	mov    %r12,%rdi
  402884:	e8 f2 fb ff ff       	callq  40247b <urlencode>
  402889:	85 c0                	test   %eax,%eax
  40288b:	0f 88 9f 02 00 00    	js     402b30 <submitr+0x452>
  402891:	4c 8d a4 24 30 60 00 	lea    0x6030(%rsp),%r12
  402898:	00 
  402899:	49 89 e9             	mov    %rbp,%r9
  40289c:	4c 8d 84 24 30 40 00 	lea    0x4030(%rsp),%r8
  4028a3:	00 
  4028a4:	4c 89 e9             	mov    %r13,%rcx
  4028a7:	48 8b 54 24 08       	mov    0x8(%rsp),%rdx
  4028ac:	be 58 44 40 00       	mov    $0x404458,%esi
  4028b1:	4c 89 e7             	mov    %r12,%rdi
  4028b4:	b8 00 00 00 00       	mov    $0x0,%eax
  4028b9:	e8 42 e9 ff ff       	callq  401200 <sprintf@plt>
  4028be:	4c 89 e6             	mov    %r12,%rsi
  4028c1:	bf 38 47 40 00       	mov    $0x404738,%edi
  4028c6:	b8 00 00 00 00       	mov    $0x0,%eax
  4028cb:	e8 f0 e7 ff ff       	callq  4010c0 <printf@plt>
  4028d0:	4c 89 e7             	mov    %r12,%rdi
  4028d3:	e8 c8 e7 ff ff       	callq  4010a0 <strlen@plt>
  4028d8:	48 89 c2             	mov    %rax,%rdx
  4028db:	4c 89 e6             	mov    %r12,%rsi
  4028de:	89 df                	mov    %ebx,%edi
  4028e0:	e8 91 fc ff ff       	callq  402576 <rio_writen>
  4028e5:	48 85 c0             	test   %rax,%rax
  4028e8:	0f 88 ca 02 00 00    	js     402bb8 <submitr+0x4da>
  4028ee:	48 8d ac 24 30 a0 00 	lea    0xa030(%rsp),%rbp
  4028f5:	00 
  4028f6:	89 de                	mov    %ebx,%esi
  4028f8:	48 89 ef             	mov    %rbp,%rdi
  4028fb:	e8 40 fb ff ff       	callq  402440 <rio_readinitb>
  402900:	48 8d b4 24 30 60 00 	lea    0x6030(%rsp),%rsi
  402907:	00 
  402908:	ba 00 20 00 00       	mov    $0x2000,%edx
  40290d:	48 89 ef             	mov    %rbp,%rdi
  402910:	e8 4d fd ff ff       	callq  402662 <rio_readlineb>
  402915:	48 85 c0             	test   %rax,%rax
  402918:	0f 8e 06 03 00 00    	jle    402c24 <submitr+0x546>
  40291e:	48 8d ac 24 30 60 00 	lea    0x6030(%rsp),%rbp
  402925:	00 
  402926:	48 89 ee             	mov    %rbp,%rsi
  402929:	bf 4a 47 40 00       	mov    $0x40474a,%edi
  40292e:	b8 00 00 00 00       	mov    $0x0,%eax
  402933:	e8 88 e7 ff ff       	callq  4010c0 <printf@plt>
  402938:	48 8d 8c 24 2c 20 00 	lea    0x202c(%rsp),%rcx
  40293f:	00 
  402940:	48 8d 94 24 30 20 00 	lea    0x2030(%rsp),%rdx
  402947:	00 
  402948:	4c 8d 44 24 20       	lea    0x20(%rsp),%r8
  40294d:	be 5c 47 40 00       	mov    $0x40475c,%esi
  402952:	48 89 ef             	mov    %rbp,%rdi
  402955:	b8 00 00 00 00       	mov    $0x0,%eax
  40295a:	e8 31 e8 ff ff       	callq  401190 <__isoc99_sscanf@plt>
  40295f:	48 8d bc 24 30 60 00 	lea    0x6030(%rsp),%rdi
  402966:	00 
  402967:	be c0 47 40 00       	mov    $0x4047c0,%esi
  40296c:	e8 9f e7 ff ff       	callq  401110 <strcmp@plt>
  402971:	85 c0                	test   %eax,%eax
  402973:	0f 84 b5 03 00 00    	je     402d2e <submitr+0x650>
  402979:	48 8d b4 24 30 60 00 	lea    0x6030(%rsp),%rsi
  402980:	00 
  402981:	48 8d bc 24 30 a0 00 	lea    0xa030(%rsp),%rdi
  402988:	00 
  402989:	ba 00 20 00 00       	mov    $0x2000,%edx
  40298e:	e8 cf fc ff ff       	callq  402662 <rio_readlineb>
  402993:	48 85 c0             	test   %rax,%rax
  402996:	0f 8e 05 03 00 00    	jle    402ca1 <submitr+0x5c3>
  40299c:	48 8d b4 24 30 60 00 	lea    0x6030(%rsp),%rsi
  4029a3:	00 
  4029a4:	bf 6d 47 40 00       	mov    $0x40476d,%edi
  4029a9:	b8 00 00 00 00       	mov    $0x0,%eax
  4029ae:	e8 0d e7 ff ff       	callq  4010c0 <printf@plt>
  4029b3:	eb aa                	jmp    40295f <submitr+0x281>
  4029b5:	48 b8 45 72 72 6f 72 	movabs $0x43203a726f727245,%rax
  4029bc:	3a 20 43 
  4029bf:	48 ba 6c 69 65 6e 74 	movabs $0x6e7520746e65696c,%rdx
  4029c6:	20 75 6e 
  4029c9:	49 89 06             	mov    %rax,(%r14)
  4029cc:	49 89 56 08          	mov    %rdx,0x8(%r14)
  4029d0:	48 b8 61 62 6c 65 20 	movabs $0x206f7420656c6261,%rax
  4029d7:	74 6f 20 
  4029da:	48 ba 63 72 65 61 74 	movabs $0x7320657461657263,%rdx
  4029e1:	65 20 73 
  4029e4:	49 89 46 10          	mov    %rax,0x10(%r14)
  4029e8:	49 89 56 18          	mov    %rdx,0x18(%r14)
  4029ec:	48 b8 20 73 6f 63 6b 	movabs $0x74656b636f7320,%rax
  4029f3:	65 74 00 
  4029f6:	49 89 46 1e          	mov    %rax,0x1e(%r14)
  4029fa:	b8 ff ff ff ff       	mov    $0xffffffff,%eax
  4029ff:	e9 18 03 00 00       	jmpq   402d1c <submitr+0x63e>
  402a04:	48 b8 45 72 72 6f 72 	movabs $0x44203a726f727245,%rax
  402a0b:	3a 20 44 
  402a0e:	48 ba 4e 53 20 69 73 	movabs $0x6e7520736920534e,%rdx
  402a15:	20 75 6e 
  402a18:	49 89 06             	mov    %rax,(%r14)
  402a1b:	49 89 56 08          	mov    %rdx,0x8(%r14)
  402a1f:	48 b8 61 62 6c 65 20 	movabs $0x206f7420656c6261,%rax
  402a26:	74 6f 20 
  402a29:	48 ba 72 65 73 6f 6c 	movabs $0x2065766c6f736572,%rdx
  402a30:	76 65 20 
  402a33:	49 89 46 10          	mov    %rax,0x10(%r14)
  402a37:	49 89 56 18          	mov    %rdx,0x18(%r14)
  402a3b:	48 b8 20 73 65 72 76 	movabs $0x2072657672657320,%rax
  402a42:	65 72 20 
  402a45:	48 ba 61 64 64 72 65 	movabs $0x73736572646461,%rdx
  402a4c:	73 73 00 
  402a4f:	49 89 46 1f          	mov    %rax,0x1f(%r14)
  402a53:	49 89 56 27          	mov    %rdx,0x27(%r14)
  402a57:	89 df                	mov    %ebx,%edi
  402a59:	e8 92 e6 ff ff       	callq  4010f0 <close@plt>
  402a5e:	b8 ff ff ff ff       	mov    $0xffffffff,%eax
  402a63:	e9 b4 02 00 00       	jmpq   402d1c <submitr+0x63e>
  402a68:	48 b8 45 72 72 6f 72 	movabs $0x55203a726f727245,%rax
  402a6f:	3a 20 55 
  402a72:	48 ba 6e 61 62 6c 65 	movabs $0x6f7420656c62616e,%rdx
  402a79:	20 74 6f 
  402a7c:	49 89 06             	mov    %rax,(%r14)
  402a7f:	49 89 56 08          	mov    %rdx,0x8(%r14)
  402a83:	48 b8 20 63 6f 6e 6e 	movabs $0x7463656e6e6f6320,%rax
  402a8a:	65 63 74 
  402a8d:	48 ba 20 74 6f 20 74 	movabs $0x20656874206f7420,%rdx
  402a94:	68 65 20 
  402a97:	49 89 46 10          	mov    %rax,0x10(%r14)
  402a9b:	49 89 56 18          	mov    %rdx,0x18(%r14)
  402a9f:	48 b8 20 73 65 72 76 	movabs $0x72657672657320,%rax
  402aa6:	65 72 00 
  402aa9:	49 89 46 1f          	mov    %rax,0x1f(%r14)
  402aad:	89 df                	mov    %ebx,%edi
  402aaf:	e8 3c e6 ff ff       	callq  4010f0 <close@plt>
  402ab4:	b8 ff ff ff ff       	mov    $0xffffffff,%eax
  402ab9:	e9 5e 02 00 00       	jmpq   402d1c <submitr+0x63e>
  402abe:	48 b8 45 72 72 6f 72 	movabs $0x52203a726f727245,%rax
  402ac5:	3a 20 52 
  402ac8:	48 ba 65 73 75 6c 74 	movabs $0x747320746c757365,%rdx
  402acf:	20 73 74 
  402ad2:	49 89 06             	mov    %rax,(%r14)
  402ad5:	49 89 56 08          	mov    %rdx,0x8(%r14)
  402ad9:	48 b8 72 69 6e 67 20 	movabs $0x6f6f7420676e6972,%rax
  402ae0:	74 6f 6f 
  402ae3:	48 ba 20 6c 61 72 67 	movabs $0x202e656772616c20,%rdx
  402aea:	65 2e 20 
  402aed:	49 89 46 10          	mov    %rax,0x10(%r14)
  402af1:	49 89 56 18          	mov    %rdx,0x18(%r14)
  402af5:	48 b8 49 6e 63 72 65 	movabs $0x6573616572636e49,%rax
  402afc:	61 73 65 
  402aff:	48 ba 20 53 55 42 4d 	movabs $0x5254494d42555320,%rdx
  402b06:	49 54 52 
  402b09:	49 89 46 20          	mov    %rax,0x20(%r14)
  402b0d:	49 89 56 28          	mov    %rdx,0x28(%r14)
  402b11:	48 b8 5f 4d 41 58 42 	movabs $0x46554258414d5f,%rax
  402b18:	55 46 00 
  402b1b:	49 89 46 30          	mov    %rax,0x30(%r14)
  402b1f:	89 df                	mov    %ebx,%edi
  402b21:	e8 ca e5 ff ff       	callq  4010f0 <close@plt>
  402b26:	b8 ff ff ff ff       	mov    $0xffffffff,%eax
  402b2b:	e9 ec 01 00 00       	jmpq   402d1c <submitr+0x63e>
  402b30:	48 b8 45 72 72 6f 72 	movabs $0x52203a726f727245,%rax
  402b37:	3a 20 52 
  402b3a:	48 ba 65 73 75 6c 74 	movabs $0x747320746c757365,%rdx
  402b41:	20 73 74 
  402b44:	49 89 06             	mov    %rax,(%r14)
  402b47:	49 89 56 08          	mov    %rdx,0x8(%r14)
  402b4b:	48 b8 72 69 6e 67 20 	movabs $0x6e6f6320676e6972,%rax
  402b52:	63 6f 6e 
  402b55:	48 ba 74 61 69 6e 73 	movabs $0x6e6120736e696174,%rdx
  402b5c:	20 61 6e 
  402b5f:	49 89 46 10          	mov    %rax,0x10(%r14)
  402b63:	49 89 56 18          	mov    %rdx,0x18(%r14)
  402b67:	48 b8 20 69 6c 6c 65 	movabs $0x6c6167656c6c6920,%rax
  402b6e:	67 61 6c 
  402b71:	48 ba 20 6f 72 20 75 	movabs $0x72706e7520726f20,%rdx
  402b78:	6e 70 72 
  402b7b:	49 89 46 20          	mov    %rax,0x20(%r14)
  402b7f:	49 89 56 28          	mov    %rdx,0x28(%r14)
  402b83:	48 b8 69 6e 74 61 62 	movabs $0x20656c6261746e69,%rax
  402b8a:	6c 65 20 
  402b8d:	48 ba 63 68 61 72 61 	movabs $0x6574636172616863,%rdx
  402b94:	63 74 65 
  402b97:	49 89 46 30          	mov    %rax,0x30(%r14)
  402b9b:	49 89 56 38          	mov    %rdx,0x38(%r14)
  402b9f:	41 c7 46 3f 65 72 2e 	movl   $0x2e7265,0x3f(%r14)
  402ba6:	00 
  402ba7:	89 df                	mov    %ebx,%edi
  402ba9:	e8 42 e5 ff ff       	callq  4010f0 <close@plt>
  402bae:	b8 ff ff ff ff       	mov    $0xffffffff,%eax
  402bb3:	e9 64 01 00 00       	jmpq   402d1c <submitr+0x63e>
  402bb8:	48 b8 45 72 72 6f 72 	movabs $0x43203a726f727245,%rax
  402bbf:	3a 20 43 
  402bc2:	48 ba 6c 69 65 6e 74 	movabs $0x6e7520746e65696c,%rdx
  402bc9:	20 75 6e 
  402bcc:	49 89 06             	mov    %rax,(%r14)
  402bcf:	49 89 56 08          	mov    %rdx,0x8(%r14)
  402bd3:	48 b8 61 62 6c 65 20 	movabs $0x206f7420656c6261,%rax
  402bda:	74 6f 20 
  402bdd:	48 ba 77 72 69 74 65 	movabs $0x6f74206574697277,%rdx
  402be4:	20 74 6f 
  402be7:	49 89 46 10          	mov    %rax,0x10(%r14)
  402beb:	49 89 56 18          	mov    %rdx,0x18(%r14)
  402bef:	48 b8 20 74 68 65 20 	movabs $0x7365722065687420,%rax
  402bf6:	72 65 73 
  402bf9:	48 ba 75 6c 74 20 73 	movabs $0x7672657320746c75,%rdx
  402c00:	65 72 76 
  402c03:	49 89 46 20          	mov    %rax,0x20(%r14)
  402c07:	49 89 56 28          	mov    %rdx,0x28(%r14)
  402c0b:	41 c7 46 2f 76 65 72 	movl   $0x726576,0x2f(%r14)
  402c12:	00 
  402c13:	89 df                	mov    %ebx,%edi
  402c15:	e8 d6 e4 ff ff       	callq  4010f0 <close@plt>
  402c1a:	b8 ff ff ff ff       	mov    $0xffffffff,%eax
  402c1f:	e9 f8 00 00 00       	jmpq   402d1c <submitr+0x63e>
  402c24:	48 b8 45 72 72 6f 72 	movabs $0x43203a726f727245,%rax
  402c2b:	3a 20 43 
  402c2e:	48 ba 6c 69 65 6e 74 	movabs $0x6e7520746e65696c,%rdx
  402c35:	20 75 6e 
  402c38:	49 89 06             	mov    %rax,(%r14)
  402c3b:	49 89 56 08          	mov    %rdx,0x8(%r14)
  402c3f:	48 b8 61 62 6c 65 20 	movabs $0x206f7420656c6261,%rax
  402c46:	74 6f 20 
  402c49:	48 ba 72 65 61 64 20 	movabs $0x7269662064616572,%rdx
  402c50:	66 69 72 
  402c53:	49 89 46 10          	mov    %rax,0x10(%r14)
  402c57:	49 89 56 18          	mov    %rdx,0x18(%r14)
  402c5b:	48 b8 73 74 20 68 65 	movabs $0x6564616568207473,%rax
  402c62:	61 64 65 
  402c65:	48 ba 72 20 66 72 6f 	movabs $0x72206d6f72662072,%rdx
  402c6c:	6d 20 72 
  402c6f:	49 89 46 20          	mov    %rax,0x20(%r14)
  402c73:	49 89 56 28          	mov    %rdx,0x28(%r14)
  402c77:	48 b8 6d 20 72 65 73 	movabs $0x746c75736572206d,%rax
  402c7e:	75 6c 74 
  402c81:	48 ba 20 73 65 72 76 	movabs $0x72657672657320,%rdx
  402c88:	65 72 00 
  402c8b:	49 89 46 2d          	mov    %rax,0x2d(%r14)
  402c8f:	49 89 56 35          	mov    %rdx,0x35(%r14)
  402c93:	89 df                	mov    %ebx,%edi
  402c95:	e8 56 e4 ff ff       	callq  4010f0 <close@plt>
  402c9a:	b8 ff ff ff ff       	mov    $0xffffffff,%eax
  402c9f:	eb 7b                	jmp    402d1c <submitr+0x63e>
  402ca1:	48 b8 45 72 72 6f 72 	movabs $0x43203a726f727245,%rax
  402ca8:	3a 20 43 
  402cab:	48 ba 6c 69 65 6e 74 	movabs $0x6e7520746e65696c,%rdx
  402cb2:	20 75 6e 
  402cb5:	49 89 06             	mov    %rax,(%r14)
  402cb8:	49 89 56 08          	mov    %rdx,0x8(%r14)
  402cbc:	48 b8 61 62 6c 65 20 	movabs $0x206f7420656c6261,%rax
  402cc3:	74 6f 20 
  402cc6:	48 ba 72 65 61 64 20 	movabs $0x6165682064616572,%rdx
  402ccd:	68 65 61 
  402cd0:	49 89 46 10          	mov    %rax,0x10(%r14)
  402cd4:	49 89 56 18          	mov    %rdx,0x18(%r14)
  402cd8:	48 b8 64 65 72 73 20 	movabs $0x6f72662073726564,%rax
  402cdf:	66 72 6f 
  402ce2:	48 ba 6d 20 74 68 65 	movabs $0x657220656874206d,%rdx
  402ce9:	20 72 65 
  402cec:	49 89 46 20          	mov    %rax,0x20(%r14)
  402cf0:	49 89 56 28          	mov    %rdx,0x28(%r14)
  402cf4:	48 b8 65 20 72 65 73 	movabs $0x746c757365722065,%rax
  402cfb:	75 6c 74 
  402cfe:	48 ba 20 73 65 72 76 	movabs $0x72657672657320,%rdx
  402d05:	65 72 00 
  402d08:	49 89 46 2c          	mov    %rax,0x2c(%r14)
  402d0c:	49 89 56 34          	mov    %rdx,0x34(%r14)
  402d10:	89 df                	mov    %ebx,%edi
  402d12:	e8 d9 e3 ff ff       	callq  4010f0 <close@plt>
  402d17:	b8 ff ff ff ff       	mov    $0xffffffff,%eax
  402d1c:	48 81 c4 58 c0 00 00 	add    $0xc058,%rsp
  402d23:	5b                   	pop    %rbx
  402d24:	5d                   	pop    %rbp
  402d25:	41 5c                	pop    %r12
  402d27:	41 5d                	pop    %r13
  402d29:	41 5e                	pop    %r14
  402d2b:	41 5f                	pop    %r15
  402d2d:	c3                   	retq   
  402d2e:	48 8d b4 24 30 60 00 	lea    0x6030(%rsp),%rsi
  402d35:	00 
  402d36:	48 8d bc 24 30 a0 00 	lea    0xa030(%rsp),%rdi
  402d3d:	00 
  402d3e:	ba 00 20 00 00       	mov    $0x2000,%edx
  402d43:	e8 1a f9 ff ff       	callq  402662 <rio_readlineb>
  402d48:	48 85 c0             	test   %rax,%rax
  402d4b:	7e 2f                	jle    402d7c <submitr+0x69e>
  402d4d:	48 8d ac 24 30 60 00 	lea    0x6030(%rsp),%rbp
  402d54:	00 
  402d55:	48 8d bc 24 30 80 00 	lea    0x8030(%rsp),%rdi
  402d5c:	00 
  402d5d:	48 89 ee             	mov    %rbp,%rsi
  402d60:	e8 0b e3 ff ff       	callq  401070 <strcpy@plt>
  402d65:	48 89 ee             	mov    %rbp,%rsi
  402d68:	bf 81 47 40 00       	mov    $0x404781,%edi
  402d6d:	b8 00 00 00 00       	mov    $0x0,%eax
  402d72:	e8 49 e3 ff ff       	callq  4010c0 <printf@plt>
  402d77:	e9 97 00 00 00       	jmpq   402e13 <submitr+0x735>
  402d7c:	48 b8 45 72 72 6f 72 	movabs $0x43203a726f727245,%rax
  402d83:	3a 20 43 
  402d86:	48 ba 6c 69 65 6e 74 	movabs $0x6e7520746e65696c,%rdx
  402d8d:	20 75 6e 
  402d90:	49 89 06             	mov    %rax,(%r14)
  402d93:	49 89 56 08          	mov    %rdx,0x8(%r14)
  402d97:	48 b8 61 62 6c 65 20 	movabs $0x206f7420656c6261,%rax
  402d9e:	74 6f 20 
  402da1:	48 ba 72 65 61 64 20 	movabs $0x6174732064616572,%rdx
  402da8:	73 74 61 
  402dab:	49 89 46 10          	mov    %rax,0x10(%r14)
  402daf:	49 89 56 18          	mov    %rdx,0x18(%r14)
  402db3:	48 b8 74 75 73 20 6d 	movabs $0x7373656d20737574,%rax
  402dba:	65 73 73 
  402dbd:	48 ba 61 67 65 20 66 	movabs $0x6d6f726620656761,%rdx
  402dc4:	72 6f 6d 
  402dc7:	49 89 46 20          	mov    %rax,0x20(%r14)
  402dcb:	49 89 56 28          	mov    %rdx,0x28(%r14)
  402dcf:	48 b8 6d 20 72 65 73 	movabs $0x746c75736572206d,%rax
  402dd6:	75 6c 74 
  402dd9:	48 ba 20 73 65 72 76 	movabs $0x72657672657320,%rdx
  402de0:	65 72 00 
  402de3:	49 89 46 2f          	mov    %rax,0x2f(%r14)
  402de7:	49 89 56 37          	mov    %rdx,0x37(%r14)
  402deb:	89 df                	mov    %ebx,%edi
  402ded:	e8 fe e2 ff ff       	callq  4010f0 <close@plt>
  402df2:	b8 ff ff ff ff       	mov    $0xffffffff,%eax
  402df7:	e9 20 ff ff ff       	jmpq   402d1c <submitr+0x63e>
  402dfc:	48 8d b4 24 30 60 00 	lea    0x6030(%rsp),%rsi
  402e03:	00 
  402e04:	bf 81 47 40 00       	mov    $0x404781,%edi
  402e09:	b8 00 00 00 00       	mov    $0x0,%eax
  402e0e:	e8 ad e2 ff ff       	callq  4010c0 <printf@plt>
  402e13:	48 8d b4 24 30 60 00 	lea    0x6030(%rsp),%rsi
  402e1a:	00 
  402e1b:	48 8d bc 24 30 a0 00 	lea    0xa030(%rsp),%rdi
  402e22:	00 
  402e23:	ba 00 20 00 00       	mov    $0x2000,%edx
  402e28:	e8 35 f8 ff ff       	callq  402662 <rio_readlineb>
  402e2d:	48 85 c0             	test   %rax,%rax
  402e30:	75 ca                	jne    402dfc <submitr+0x71e>
  402e32:	bf 93 47 40 00       	mov    $0x404793,%edi
  402e37:	e8 44 e2 ff ff       	callq  401080 <puts@plt>
  402e3c:	48 8d b4 24 30 80 00 	lea    0x8030(%rsp),%rsi
  402e43:	00 
  402e44:	48 8d bc 24 30 60 00 	lea    0x6030(%rsp),%rdi
  402e4b:	00 
  402e4c:	e8 1f e2 ff ff       	callq  401070 <strcpy@plt>
  402e51:	8b 94 24 2c 20 00 00 	mov    0x202c(%rsp),%edx
  402e58:	81 fa c8 00 00 00    	cmp    $0xc8,%edx
  402e5e:	75 6f                	jne    402ecf <submitr+0x7f1>
  402e60:	48 8d 74 24 20       	lea    0x20(%rsp),%rsi
  402e65:	4c 89 f7             	mov    %r14,%rdi
  402e68:	e8 03 e2 ff ff       	callq  401070 <strcpy@plt>
  402e6d:	89 df                	mov    %ebx,%edi
  402e6f:	e8 7c e2 ff ff       	callq  4010f0 <close@plt>
  402e74:	4c 89 f6             	mov    %r14,%rsi
  402e77:	bf ab 47 40 00       	mov    $0x4047ab,%edi
  402e7c:	b8 00 00 00 00       	mov    $0x0,%eax
  402e81:	e8 3a e2 ff ff       	callq  4010c0 <printf@plt>
  402e86:	be ba 47 40 00       	mov    $0x4047ba,%esi
  402e8b:	4c 89 f7             	mov    %r14,%rdi
  402e8e:	e8 7d e2 ff ff       	callq  401110 <strcmp@plt>
  402e93:	85 c0                	test   %eax,%eax
  402e95:	0f 84 81 fe ff ff    	je     402d1c <submitr+0x63e>
  402e9b:	be be 47 40 00       	mov    $0x4047be,%esi
  402ea0:	4c 89 f7             	mov    %r14,%rdi
  402ea3:	e8 68 e2 ff ff       	callq  401110 <strcmp@plt>
  402ea8:	85 c0                	test   %eax,%eax
  402eaa:	0f 84 6c fe ff ff    	je     402d1c <submitr+0x63e>
  402eb0:	be c3 47 40 00       	mov    $0x4047c3,%esi
  402eb5:	4c 89 f7             	mov    %r14,%rdi
  402eb8:	e8 53 e2 ff ff       	callq  401110 <strcmp@plt>
  402ebd:	85 c0                	test   %eax,%eax
  402ebf:	0f 84 57 fe ff ff    	je     402d1c <submitr+0x63e>
  402ec5:	b8 ff ff ff ff       	mov    $0xffffffff,%eax
  402eca:	e9 4d fe ff ff       	jmpq   402d1c <submitr+0x63e>
  402ecf:	48 8d 4c 24 20       	lea    0x20(%rsp),%rcx
  402ed4:	be 98 44 40 00       	mov    $0x404498,%esi
  402ed9:	4c 89 f7             	mov    %r14,%rdi
  402edc:	b8 00 00 00 00       	mov    $0x0,%eax
  402ee1:	e8 1a e3 ff ff       	callq  401200 <sprintf@plt>
  402ee6:	89 df                	mov    %ebx,%edi
  402ee8:	e8 03 e2 ff ff       	callq  4010f0 <close@plt>
  402eed:	b8 ff ff ff ff       	mov    $0xffffffff,%eax
  402ef2:	e9 25 fe ff ff       	jmpq   402d1c <submitr+0x63e>

0000000000402ef7 <init_timeout>:
  402ef7:	85 ff                	test   %edi,%edi
  402ef9:	74 24                	je     402f1f <init_timeout+0x28>
  402efb:	53                   	push   %rbx
  402efc:	89 fb                	mov    %edi,%ebx
  402efe:	78 18                	js     402f18 <init_timeout+0x21>
  402f00:	be 52 24 40 00       	mov    $0x402452,%esi
  402f05:	bf 0e 00 00 00       	mov    $0xe,%edi
  402f0a:	e8 11 e2 ff ff       	callq  401120 <signal@plt>
  402f0f:	89 df                	mov    %ebx,%edi
  402f11:	e8 ca e1 ff ff       	callq  4010e0 <alarm@plt>
  402f16:	5b                   	pop    %rbx
  402f17:	c3                   	retq   
  402f18:	bb 00 00 00 00       	mov    $0x0,%ebx
  402f1d:	eb e1                	jmp    402f00 <init_timeout+0x9>
  402f1f:	c3                   	retq   

0000000000402f20 <init_driver>:
  402f20:	41 54                	push   %r12
  402f22:	55                   	push   %rbp
  402f23:	53                   	push   %rbx
  402f24:	48 83 ec 10          	sub    $0x10,%rsp
  402f28:	48 89 fd             	mov    %rdi,%rbp
  402f2b:	be 01 00 00 00       	mov    $0x1,%esi
  402f30:	bf 0d 00 00 00       	mov    $0xd,%edi
  402f35:	e8 e6 e1 ff ff       	callq  401120 <signal@plt>
  402f3a:	be 01 00 00 00       	mov    $0x1,%esi
  402f3f:	bf 1d 00 00 00       	mov    $0x1d,%edi
  402f44:	e8 d7 e1 ff ff       	callq  401120 <signal@plt>
  402f49:	be 01 00 00 00       	mov    $0x1,%esi
  402f4e:	bf 1d 00 00 00       	mov    $0x1d,%edi
  402f53:	e8 c8 e1 ff ff       	callq  401120 <signal@plt>
  402f58:	ba 00 00 00 00       	mov    $0x0,%edx
  402f5d:	be 01 00 00 00       	mov    $0x1,%esi
  402f62:	bf 02 00 00 00       	mov    $0x2,%edi
  402f67:	e8 d4 e2 ff ff       	callq  401240 <socket@plt>
  402f6c:	85 c0                	test   %eax,%eax
  402f6e:	78 75                	js     402fe5 <init_driver+0xc5>
  402f70:	89 c3                	mov    %eax,%ebx
  402f72:	bf c6 47 40 00       	mov    $0x4047c6,%edi
  402f77:	e8 b4 e1 ff ff       	callq  401130 <gethostbyname@plt>
  402f7c:	48 85 c0             	test   %rax,%rax
  402f7f:	0f 84 ad 00 00 00    	je     403032 <init_driver+0x112>
  402f85:	66 0f ef c0          	pxor   %xmm0,%xmm0
  402f89:	0f 29 04 24          	movaps %xmm0,(%rsp)
  402f8d:	66 c7 04 24 02 00    	movw   $0x2,(%rsp)
  402f93:	48 8b 48 18          	mov    0x18(%rax),%rcx
  402f97:	48 63 50 14          	movslq 0x14(%rax),%rdx
  402f9b:	48 8b 31             	mov    (%rcx),%rsi
  402f9e:	48 8d 7c 24 04       	lea    0x4(%rsp),%rdi
  402fa3:	e8 08 e2 ff ff       	callq  4011b0 <memmove@plt>
  402fa8:	66 c7 44 24 02 1f 54 	movw   $0x541f,0x2(%rsp)
  402faf:	ba 10 00 00 00       	mov    $0x10,%edx
  402fb4:	48 89 e6             	mov    %rsp,%rsi
  402fb7:	89 df                	mov    %ebx,%edi
  402fb9:	e8 62 e2 ff ff       	callq  401220 <connect@plt>
  402fbe:	85 c0                	test   %eax,%eax
  402fc0:	0f 88 d1 00 00 00    	js     403097 <init_driver+0x177>
  402fc6:	89 df                	mov    %ebx,%edi
  402fc8:	e8 23 e1 ff ff       	callq  4010f0 <close@plt>
  402fcd:	66 c7 45 00 4f 4b    	movw   $0x4b4f,0x0(%rbp)
  402fd3:	c6 45 02 00          	movb   $0x0,0x2(%rbp)
  402fd7:	b8 00 00 00 00       	mov    $0x0,%eax
  402fdc:	48 83 c4 10          	add    $0x10,%rsp
  402fe0:	5b                   	pop    %rbx
  402fe1:	5d                   	pop    %rbp
  402fe2:	41 5c                	pop    %r12
  402fe4:	c3                   	retq   
  402fe5:	48 b8 45 72 72 6f 72 	movabs $0x43203a726f727245,%rax
  402fec:	3a 20 43 
  402fef:	48 ba 6c 69 65 6e 74 	movabs $0x6e7520746e65696c,%rdx
  402ff6:	20 75 6e 
  402ff9:	48 89 45 00          	mov    %rax,0x0(%rbp)
  402ffd:	48 89 55 08          	mov    %rdx,0x8(%rbp)
  403001:	48 b8 61 62 6c 65 20 	movabs $0x206f7420656c6261,%rax
  403008:	74 6f 20 
  40300b:	48 ba 63 72 65 61 74 	movabs $0x7320657461657263,%rdx
  403012:	65 20 73 
  403015:	48 89 45 10          	mov    %rax,0x10(%rbp)
  403019:	48 89 55 18          	mov    %rdx,0x18(%rbp)
  40301d:	48 b8 20 73 6f 63 6b 	movabs $0x74656b636f7320,%rax
  403024:	65 74 00 
  403027:	48 89 45 1e          	mov    %rax,0x1e(%rbp)
  40302b:	b8 ff ff ff ff       	mov    $0xffffffff,%eax
  403030:	eb aa                	jmp    402fdc <init_driver+0xbc>
  403032:	48 b8 45 72 72 6f 72 	movabs $0x44203a726f727245,%rax
  403039:	3a 20 44 
  40303c:	48 ba 4e 53 20 69 73 	movabs $0x6e7520736920534e,%rdx
  403043:	20 75 6e 
  403046:	48 89 45 00          	mov    %rax,0x0(%rbp)
  40304a:	48 89 55 08          	mov    %rdx,0x8(%rbp)
  40304e:	48 b8 61 62 6c 65 20 	movabs $0x206f7420656c6261,%rax
  403055:	74 6f 20 
  403058:	48 ba 72 65 73 6f 6c 	movabs $0x2065766c6f736572,%rdx
  40305f:	76 65 20 
  403062:	48 89 45 10          	mov    %rax,0x10(%rbp)
  403066:	48 89 55 18          	mov    %rdx,0x18(%rbp)
  40306a:	48 b8 20 73 65 72 76 	movabs $0x2072657672657320,%rax
  403071:	65 72 20 
  403074:	48 ba 61 64 64 72 65 	movabs $0x73736572646461,%rdx
  40307b:	73 73 00 
  40307e:	48 89 45 1f          	mov    %rax,0x1f(%rbp)
  403082:	48 89 55 27          	mov    %rdx,0x27(%rbp)
  403086:	89 df                	mov    %ebx,%edi
  403088:	e8 63 e0 ff ff       	callq  4010f0 <close@plt>
  40308d:	b8 ff ff ff ff       	mov    $0xffffffff,%eax
  403092:	e9 45 ff ff ff       	jmpq   402fdc <init_driver+0xbc>
  403097:	48 b8 31 30 2e 30 2e 	movabs $0x3831312e302e3031,%rax
  40309e:	31 31 38 
  4030a1:	48 89 45 00          	mov    %rax,0x0(%rbp)
  4030a5:	48 b8 31 31 38 2e 31 	movabs $0x3430312e383131,%rax
  4030ac:	30 34 00 
  4030af:	48 89 45 05          	mov    %rax,0x5(%rbp)
  4030b3:	48 b8 45 72 72 6f 72 	movabs $0x55203a726f727245,%rax
  4030ba:	3a 20 55 
  4030bd:	48 ba 6e 61 62 6c 65 	movabs $0x6f7420656c62616e,%rdx
  4030c4:	20 74 6f 
  4030c7:	48 89 45 00          	mov    %rax,0x0(%rbp)
  4030cb:	48 89 55 08          	mov    %rdx,0x8(%rbp)
  4030cf:	48 b8 20 63 6f 6e 6e 	movabs $0x7463656e6e6f6320,%rax
  4030d6:	65 63 74 
  4030d9:	48 ba 20 74 6f 20 73 	movabs $0x76726573206f7420,%rdx
  4030e0:	65 72 76 
  4030e3:	48 89 45 10          	mov    %rax,0x10(%rbp)
  4030e7:	48 89 55 18          	mov    %rdx,0x18(%rbp)
  4030eb:	c7 45 1f 76 65 72 00 	movl   $0x726576,0x1f(%rbp)
  4030f2:	89 df                	mov    %ebx,%edi
  4030f4:	e8 f7 df ff ff       	callq  4010f0 <close@plt>
  4030f9:	b8 ff ff ff ff       	mov    $0xffffffff,%eax
  4030fe:	e9 d9 fe ff ff       	jmpq   402fdc <init_driver+0xbc>

0000000000403103 <driver_post>:
  403103:	53                   	push   %rbx
  403104:	4c 89 cb             	mov    %r9,%rbx
  403107:	45 85 c0             	test   %r8d,%r8d
  40310a:	75 18                	jne    403124 <driver_post+0x21>
  40310c:	48 85 ff             	test   %rdi,%rdi
  40310f:	74 05                	je     403116 <driver_post+0x13>
  403111:	80 3f 00             	cmpb   $0x0,(%rdi)
  403114:	75 30                	jne    403146 <driver_post+0x43>
  403116:	66 c7 03 4f 4b       	movw   $0x4b4f,(%rbx)
  40311b:	c6 43 02 00          	movb   $0x0,0x2(%rbx)
  40311f:	44 89 c0             	mov    %r8d,%eax
  403122:	5b                   	pop    %rbx
  403123:	c3                   	retq   
  403124:	48 89 ce             	mov    %rcx,%rsi
  403127:	bf d3 47 40 00       	mov    $0x4047d3,%edi
  40312c:	b8 00 00 00 00       	mov    $0x0,%eax
  403131:	e8 8a df ff ff       	callq  4010c0 <printf@plt>
  403136:	66 c7 03 4f 4b       	movw   $0x4b4f,(%rbx)
  40313b:	c6 43 02 00          	movb   $0x0,0x2(%rbx)
  40313f:	b8 00 00 00 00       	mov    $0x0,%eax
  403144:	eb dc                	jmp    403122 <driver_post+0x1f>
  403146:	48 83 ec 08          	sub    $0x8,%rsp
  40314a:	41 51                	push   %r9
  40314c:	49 89 c9             	mov    %rcx,%r9
  40314f:	49 89 d0             	mov    %rdx,%r8
  403152:	48 89 f9             	mov    %rdi,%rcx
  403155:	48 89 f2             	mov    %rsi,%rdx
  403158:	be 54 1f 00 00       	mov    $0x1f54,%esi
  40315d:	bf c6 47 40 00       	mov    $0x4047c6,%edi
  403162:	e8 77 f5 ff ff       	callq  4026de <submitr>
  403167:	48 83 c4 10          	add    $0x10,%rsp
  40316b:	eb b5                	jmp    403122 <driver_post+0x1f>

000000000040316d <check>:
  40316d:	89 f8                	mov    %edi,%eax
  40316f:	c1 e8 1c             	shr    $0x1c,%eax
  403172:	74 1d                	je     403191 <check+0x24>
  403174:	b9 00 00 00 00       	mov    $0x0,%ecx
  403179:	83 f9 1f             	cmp    $0x1f,%ecx
  40317c:	7f 0d                	jg     40318b <check+0x1e>
  40317e:	89 f8                	mov    %edi,%eax
  403180:	d3 e8                	shr    %cl,%eax
  403182:	3c 0a                	cmp    $0xa,%al
  403184:	74 11                	je     403197 <check+0x2a>
  403186:	83 c1 08             	add    $0x8,%ecx
  403189:	eb ee                	jmp    403179 <check+0xc>
  40318b:	b8 01 00 00 00       	mov    $0x1,%eax
  403190:	c3                   	retq   
  403191:	b8 00 00 00 00       	mov    $0x0,%eax
  403196:	c3                   	retq   
  403197:	b8 00 00 00 00       	mov    $0x0,%eax
  40319c:	c3                   	retq   

000000000040319d <gencookie>:
  40319d:	53                   	push   %rbx
  40319e:	83 c7 01             	add    $0x1,%edi
  4031a1:	e8 aa de ff ff       	callq  401050 <srandom@plt>
  4031a6:	e8 d5 df ff ff       	callq  401180 <random@plt>
  4031ab:	89 c3                	mov    %eax,%ebx
  4031ad:	89 c7                	mov    %eax,%edi
  4031af:	e8 b9 ff ff ff       	callq  40316d <check>
  4031b4:	85 c0                	test   %eax,%eax
  4031b6:	74 ee                	je     4031a6 <gencookie+0x9>
  4031b8:	89 d8                	mov    %ebx,%eax
  4031ba:	5b                   	pop    %rbx
  4031bb:	c3                   	retq   

Disassembly of section .fini:

00000000004031bc <_fini>:
  4031bc:	f3 0f 1e fa          	endbr64 
  4031c0:	48 83 ec 08          	sub    $0x8,%rsp
  4031c4:	48 83 c4 08          	add    $0x8,%rsp
  4031c8:	c3                   	retq   
